ARM GAS  /tmp/cc7hh7FW.s 			page 1


   1              		.cpu cortex-m4
   2              		.arch armv7e-m
   3              		.fpu fpv4-sp-d16
   4              		.eabi_attribute 27, 1	@ Tag_ABI_HardFP_use
   5              		.eabi_attribute 28, 1	@ Tag_ABI_VFP_args
   6              		.eabi_attribute 20, 1	@ Tag_ABI_FP_denormal
   7              		.eabi_attribute 21, 1	@ Tag_ABI_FP_exceptions
   8              		.eabi_attribute 23, 3	@ Tag_ABI_FP_number_model
   9              		.eabi_attribute 24, 1	@ Tag_ABI_align8_needed
  10              		.eabi_attribute 25, 1	@ Tag_ABI_align8_preserved
  11              		.eabi_attribute 26, 1	@ Tag_ABI_enum_size
  12              		.eabi_attribute 30, 4	@ Tag_ABI_optimization_goals
  13              		.eabi_attribute 34, 1	@ Tag_CPU_unaligned_access
  14              		.eabi_attribute 18, 4	@ Tag_ABI_PCS_wchar_t
  15              		.file	"lrotable.c"
  16              	@ GNU C17 (Arm GNU Toolchain 14.2.Rel1 (Build arm-14.52)) version 14.2.1 20241119 (arm-none-eabi)
  17              	@	compiled by GNU C version 9.2.1 20191120 (Red Hat 9.2.1-2), GMP version 6.2.1, MPFR version 3.1.6
  18              	
  19              	@ GGC heuristics: --param ggc-min-expand=100 --param ggc-min-heapsize=131072
  20              	@ options passed: -mcpu=cortex-m4 -mthumb -mfloat-abi=hard -mfpu=fpv4-sp-d16 -march=armv7e-m+fp -gd
  21              		.text
  22              	.Ltext0:
  23              		.cfi_sections	.debug_frame
  24              		.file 1 "/home/stero141/Projects/MicrocontrollersProjects/opentx-release-2.3.15/radio/src/thirdpar
  25              		.section	.text.luaR_findentry,"ax",%progbits
  26              		.align	1
  27              		.global	luaR_findentry
  28              		.syntax unified
  29              		.thumb
  30              		.thumb_func
  31              		.type	luaR_findentry, %function
  32              	luaR_findentry:
  33              	.LVL0:
  34              	.LFB12:
   1:/home/stero141/Projects/MicrocontrollersProjects/opentx-release-2.3.15/radio/src/thirdparty/Lua/src/lrotable.c **** /* Read-only tables for Lua */
   2:/home/stero141/Projects/MicrocontrollersProjects/opentx-release-2.3.15/radio/src/thirdparty/Lua/src/lrotable.c **** 
   3:/home/stero141/Projects/MicrocontrollersProjects/opentx-release-2.3.15/radio/src/thirdparty/Lua/src/lrotable.c **** #include <string.h>
   4:/home/stero141/Projects/MicrocontrollersProjects/opentx-release-2.3.15/radio/src/thirdparty/Lua/src/lrotable.c **** #include "lua.h"
   5:/home/stero141/Projects/MicrocontrollersProjects/opentx-release-2.3.15/radio/src/thirdparty/Lua/src/lrotable.c **** #include "lauxlib.h"
   6:/home/stero141/Projects/MicrocontrollersProjects/opentx-release-2.3.15/radio/src/thirdparty/Lua/src/lrotable.c **** #include "lrotable.h"
   7:/home/stero141/Projects/MicrocontrollersProjects/opentx-release-2.3.15/radio/src/thirdparty/Lua/src/lrotable.c **** 
   8:/home/stero141/Projects/MicrocontrollersProjects/opentx-release-2.3.15/radio/src/thirdparty/Lua/src/lrotable.c **** /* Local defines */
   9:/home/stero141/Projects/MicrocontrollersProjects/opentx-release-2.3.15/radio/src/thirdparty/Lua/src/lrotable.c **** #define LUAR_FINDFUNCTION     0
  10:/home/stero141/Projects/MicrocontrollersProjects/opentx-release-2.3.15/radio/src/thirdparty/Lua/src/lrotable.c **** #define LUAR_FINDVALUE        1
  11:/home/stero141/Projects/MicrocontrollersProjects/opentx-release-2.3.15/radio/src/thirdparty/Lua/src/lrotable.c **** 
  12:/home/stero141/Projects/MicrocontrollersProjects/opentx-release-2.3.15/radio/src/thirdparty/Lua/src/lrotable.c **** /* Utility function: find a key in a given table (of functions or constants) */
  13:/home/stero141/Projects/MicrocontrollersProjects/opentx-release-2.3.15/radio/src/thirdparty/Lua/src/lrotable.c **** static luaR_result luaR_findkey(const void * where, const char * key, int type, TValue * found) {
  14:/home/stero141/Projects/MicrocontrollersProjects/opentx-release-2.3.15/radio/src/thirdparty/Lua/src/lrotable.c ****   const char *pname;
  15:/home/stero141/Projects/MicrocontrollersProjects/opentx-release-2.3.15/radio/src/thirdparty/Lua/src/lrotable.c ****   const luaL_Reg *pf = (luaL_Reg*)where;
  16:/home/stero141/Projects/MicrocontrollersProjects/opentx-release-2.3.15/radio/src/thirdparty/Lua/src/lrotable.c ****   const luaR_value_entry *pv = (luaR_value_entry*)where;
  17:/home/stero141/Projects/MicrocontrollersProjects/opentx-release-2.3.15/radio/src/thirdparty/Lua/src/lrotable.c ****   int isfunction = type == LUAR_FINDFUNCTION;
  18:/home/stero141/Projects/MicrocontrollersProjects/opentx-release-2.3.15/radio/src/thirdparty/Lua/src/lrotable.c ****   if(!where)
  19:/home/stero141/Projects/MicrocontrollersProjects/opentx-release-2.3.15/radio/src/thirdparty/Lua/src/lrotable.c ****     return 0;
  20:/home/stero141/Projects/MicrocontrollersProjects/opentx-release-2.3.15/radio/src/thirdparty/Lua/src/lrotable.c ****   while(1) {
  21:/home/stero141/Projects/MicrocontrollersProjects/opentx-release-2.3.15/radio/src/thirdparty/Lua/src/lrotable.c ****     if (!(pname = isfunction ? pf->name : pv->name))
  22:/home/stero141/Projects/MicrocontrollersProjects/opentx-release-2.3.15/radio/src/thirdparty/Lua/src/lrotable.c ****       break;
  23:/home/stero141/Projects/MicrocontrollersProjects/opentx-release-2.3.15/radio/src/thirdparty/Lua/src/lrotable.c ****     if (!strcmp(pname, key)) {
ARM GAS  /tmp/cc7hh7FW.s 			page 2


  24:/home/stero141/Projects/MicrocontrollersProjects/opentx-release-2.3.15/radio/src/thirdparty/Lua/src/lrotable.c ****       if (isfunction) {
  25:/home/stero141/Projects/MicrocontrollersProjects/opentx-release-2.3.15/radio/src/thirdparty/Lua/src/lrotable.c ****         setlfvalue(found, pf->func);
  26:/home/stero141/Projects/MicrocontrollersProjects/opentx-release-2.3.15/radio/src/thirdparty/Lua/src/lrotable.c ****       }
  27:/home/stero141/Projects/MicrocontrollersProjects/opentx-release-2.3.15/radio/src/thirdparty/Lua/src/lrotable.c ****       else {
  28:/home/stero141/Projects/MicrocontrollersProjects/opentx-release-2.3.15/radio/src/thirdparty/Lua/src/lrotable.c ****         setnvalue(found, pv->value);
  29:/home/stero141/Projects/MicrocontrollersProjects/opentx-release-2.3.15/radio/src/thirdparty/Lua/src/lrotable.c ****       }
  30:/home/stero141/Projects/MicrocontrollersProjects/opentx-release-2.3.15/radio/src/thirdparty/Lua/src/lrotable.c ****       return 1;
  31:/home/stero141/Projects/MicrocontrollersProjects/opentx-release-2.3.15/radio/src/thirdparty/Lua/src/lrotable.c ****     }
  32:/home/stero141/Projects/MicrocontrollersProjects/opentx-release-2.3.15/radio/src/thirdparty/Lua/src/lrotable.c ****     pf ++; pv ++;
  33:/home/stero141/Projects/MicrocontrollersProjects/opentx-release-2.3.15/radio/src/thirdparty/Lua/src/lrotable.c ****   }
  34:/home/stero141/Projects/MicrocontrollersProjects/opentx-release-2.3.15/radio/src/thirdparty/Lua/src/lrotable.c ****   return 0;
  35:/home/stero141/Projects/MicrocontrollersProjects/opentx-release-2.3.15/radio/src/thirdparty/Lua/src/lrotable.c **** }
  36:/home/stero141/Projects/MicrocontrollersProjects/opentx-release-2.3.15/radio/src/thirdparty/Lua/src/lrotable.c **** 
  37:/home/stero141/Projects/MicrocontrollersProjects/opentx-release-2.3.15/radio/src/thirdparty/Lua/src/lrotable.c **** 
  38:/home/stero141/Projects/MicrocontrollersProjects/opentx-release-2.3.15/radio/src/thirdparty/Lua/src/lrotable.c **** /* Find a global "read only table" in the constant lua_rotable array */
  39:/home/stero141/Projects/MicrocontrollersProjects/opentx-release-2.3.15/radio/src/thirdparty/Lua/src/lrotable.c **** luaR_result luaR_findglobal(const char * name, TValue * val) {
  40:/home/stero141/Projects/MicrocontrollersProjects/opentx-release-2.3.15/radio/src/thirdparty/Lua/src/lrotable.c ****   unsigned i;
  41:/home/stero141/Projects/MicrocontrollersProjects/opentx-release-2.3.15/radio/src/thirdparty/Lua/src/lrotable.c ****   if (strlen(name) > LUA_MAX_ROTABLE_NAME) {
  42:/home/stero141/Projects/MicrocontrollersProjects/opentx-release-2.3.15/radio/src/thirdparty/Lua/src/lrotable.c ****     TRACE_LUA_INTERNALS("luaR_findglobal('%s') = NAME TOO LONG", name);
  43:/home/stero141/Projects/MicrocontrollersProjects/opentx-release-2.3.15/radio/src/thirdparty/Lua/src/lrotable.c ****     return 0;
  44:/home/stero141/Projects/MicrocontrollersProjects/opentx-release-2.3.15/radio/src/thirdparty/Lua/src/lrotable.c ****   }
  45:/home/stero141/Projects/MicrocontrollersProjects/opentx-release-2.3.15/radio/src/thirdparty/Lua/src/lrotable.c ****   for (i=0; lua_rotable[i].name; i++) {
  46:/home/stero141/Projects/MicrocontrollersProjects/opentx-release-2.3.15/radio/src/thirdparty/Lua/src/lrotable.c ****     void * table = (void *)(&lua_rotable[i]);
  47:/home/stero141/Projects/MicrocontrollersProjects/opentx-release-2.3.15/radio/src/thirdparty/Lua/src/lrotable.c ****     if (!strcmp(lua_rotable[i].name, name)) {
  48:/home/stero141/Projects/MicrocontrollersProjects/opentx-release-2.3.15/radio/src/thirdparty/Lua/src/lrotable.c ****       setrvalue(val, table);
  49:/home/stero141/Projects/MicrocontrollersProjects/opentx-release-2.3.15/radio/src/thirdparty/Lua/src/lrotable.c ****       TRACE_LUA_INTERNALS("luaR_findglobal('%s') = TABLE %p (%s)", name, table, lua_rotable[i].name
  50:/home/stero141/Projects/MicrocontrollersProjects/opentx-release-2.3.15/radio/src/thirdparty/Lua/src/lrotable.c ****       return 1;
  51:/home/stero141/Projects/MicrocontrollersProjects/opentx-release-2.3.15/radio/src/thirdparty/Lua/src/lrotable.c ****     }
  52:/home/stero141/Projects/MicrocontrollersProjects/opentx-release-2.3.15/radio/src/thirdparty/Lua/src/lrotable.c ****     if (!strncmp(lua_rotable[i].name, "__", 2)) {
  53:/home/stero141/Projects/MicrocontrollersProjects/opentx-release-2.3.15/radio/src/thirdparty/Lua/src/lrotable.c ****       if (luaR_findentry(table, name, val)) {
  54:/home/stero141/Projects/MicrocontrollersProjects/opentx-release-2.3.15/radio/src/thirdparty/Lua/src/lrotable.c ****         TRACE_LUA_INTERNALS("luaR_findglobal('%s') = FOUND in table '%s'", name, lua_rotable[i].nam
  55:/home/stero141/Projects/MicrocontrollersProjects/opentx-release-2.3.15/radio/src/thirdparty/Lua/src/lrotable.c ****         return 1;
  56:/home/stero141/Projects/MicrocontrollersProjects/opentx-release-2.3.15/radio/src/thirdparty/Lua/src/lrotable.c ****       }
  57:/home/stero141/Projects/MicrocontrollersProjects/opentx-release-2.3.15/radio/src/thirdparty/Lua/src/lrotable.c ****     }
  58:/home/stero141/Projects/MicrocontrollersProjects/opentx-release-2.3.15/radio/src/thirdparty/Lua/src/lrotable.c ****   }
  59:/home/stero141/Projects/MicrocontrollersProjects/opentx-release-2.3.15/radio/src/thirdparty/Lua/src/lrotable.c ****   TRACE_LUA_INTERNALS("luaR_findglobal() '%s' = NOT FOUND", name);
  60:/home/stero141/Projects/MicrocontrollersProjects/opentx-release-2.3.15/radio/src/thirdparty/Lua/src/lrotable.c ****   return 0;
  61:/home/stero141/Projects/MicrocontrollersProjects/opentx-release-2.3.15/radio/src/thirdparty/Lua/src/lrotable.c **** }
  62:/home/stero141/Projects/MicrocontrollersProjects/opentx-release-2.3.15/radio/src/thirdparty/Lua/src/lrotable.c **** 
  63:/home/stero141/Projects/MicrocontrollersProjects/opentx-release-2.3.15/radio/src/thirdparty/Lua/src/lrotable.c **** 
  64:/home/stero141/Projects/MicrocontrollersProjects/opentx-release-2.3.15/radio/src/thirdparty/Lua/src/lrotable.c **** luaR_result luaR_findentry(void *data, const char * key, TValue * val) {
  35              		.loc 1 64 72 view -0
  36              		.cfi_startproc
  37              		@ args = 0, pretend = 0, frame = 0
  38              		@ frame_needed = 0, uses_anonymous_args = 0
  65:/home/stero141/Projects/MicrocontrollersProjects/opentx-release-2.3.15/radio/src/thirdparty/Lua/src/lrotable.c ****   luaR_table * table = (luaR_table *)data;
  39              		.loc 1 65 3 view .LVU1
  66:/home/stero141/Projects/MicrocontrollersProjects/opentx-release-2.3.15/radio/src/thirdparty/Lua/src/lrotable.c ****   /* First look at the functions */
  67:/home/stero141/Projects/MicrocontrollersProjects/opentx-release-2.3.15/radio/src/thirdparty/Lua/src/lrotable.c ****   if (luaR_findkey(table->pfuncs, key, LUAR_FINDFUNCTION, val)) {
  40              		.loc 1 67 3 view .LVU2
  41              	@ /home/stero141/Projects/MicrocontrollersProjects/opentx-release-2.3.15/radio/src/thirdparty/Lua/s
  64:/home/stero141/Projects/MicrocontrollersProjects/opentx-release-2.3.15/radio/src/thirdparty/Lua/src/lrotable.c ****   luaR_table * table = (luaR_table *)data;
  42              		.loc 1 64 72 is_stmt 0 view .LVU3
  43 0000 F8B5     		push	{r3, r4, r5, r6, r7, lr}	@
  44              	.LCFI0:
  45              		.cfi_def_cfa_offset 24
  46              		.cfi_offset 3, -24
ARM GAS  /tmp/cc7hh7FW.s 			page 3


  47              		.cfi_offset 4, -20
  48              		.cfi_offset 5, -16
  49              		.cfi_offset 6, -12
  50              		.cfi_offset 7, -8
  51              		.cfi_offset 14, -4
  52              	@ /home/stero141/Projects/MicrocontrollersProjects/opentx-release-2.3.15/radio/src/thirdparty/Lua/s
  53              		.loc 1 67 25 view .LVU4
  54 0002 4468     		ldr	r4, [r0, #4]	@ pf, MEM[(struct luaR_table *)data_7(D)].pfuncs
  55              	.LVL1:
  56              	@ /home/stero141/Projects/MicrocontrollersProjects/opentx-release-2.3.15/radio/src/thirdparty/Lua/s
  64:/home/stero141/Projects/MicrocontrollersProjects/opentx-release-2.3.15/radio/src/thirdparty/Lua/src/lrotable.c ****   luaR_table * table = (luaR_table *)data;
  57              		.loc 1 64 72 view .LVU5
  58 0004 0746     		mov	r7, r0	@ data, tmp134
  59 0006 0E46     		mov	r6, r1	@ key, tmp135
  60              	.LVL2:
  64:/home/stero141/Projects/MicrocontrollersProjects/opentx-release-2.3.15/radio/src/thirdparty/Lua/src/lrotable.c ****   luaR_table * table = (luaR_table *)data;
  61              		.loc 1 64 72 view .LVU6
  62 0008 1546     		mov	r5, r2	@ val, tmp136
  63              	.LVL3:
  64              	.LBB16:
  65              	.LBI16:
  13:/home/stero141/Projects/MicrocontrollersProjects/opentx-release-2.3.15/radio/src/thirdparty/Lua/src/lrotable.c ****   const char *pname;
  66              		.loc 1 13 20 is_stmt 1 view .LVU7
  67              	.LBB17:
  14:/home/stero141/Projects/MicrocontrollersProjects/opentx-release-2.3.15/radio/src/thirdparty/Lua/src/lrotable.c ****   const luaL_Reg *pf = (luaL_Reg*)where;
  68              		.loc 1 14 3 view .LVU8
  15:/home/stero141/Projects/MicrocontrollersProjects/opentx-release-2.3.15/radio/src/thirdparty/Lua/src/lrotable.c ****   const luaR_value_entry *pv = (luaR_value_entry*)where;
  69              		.loc 1 15 3 view .LVU9
  16:/home/stero141/Projects/MicrocontrollersProjects/opentx-release-2.3.15/radio/src/thirdparty/Lua/src/lrotable.c ****   int isfunction = type == LUAR_FINDFUNCTION;
  70              		.loc 1 16 3 view .LVU10
  17:/home/stero141/Projects/MicrocontrollersProjects/opentx-release-2.3.15/radio/src/thirdparty/Lua/src/lrotable.c ****   if(!where)
  71              		.loc 1 17 3 view .LVU11
  18:/home/stero141/Projects/MicrocontrollersProjects/opentx-release-2.3.15/radio/src/thirdparty/Lua/src/lrotable.c ****     return 0;
  72              		.loc 1 18 3 view .LVU12
  73              	@ /home/stero141/Projects/MicrocontrollersProjects/opentx-release-2.3.15/radio/src/thirdparty/Lua/s
  18:/home/stero141/Projects/MicrocontrollersProjects/opentx-release-2.3.15/radio/src/thirdparty/Lua/src/lrotable.c ****     return 0;
  74              		.loc 1 18 5 is_stmt 0 view .LVU13
  75 000a 6CB1     		cbz	r4, .L2	@ pf,
  76              	.LVL4:
  77              	.L5:
  78              	.LBB18:
  79              	.LBB19:
  20:/home/stero141/Projects/MicrocontrollersProjects/opentx-release-2.3.15/radio/src/thirdparty/Lua/src/lrotable.c ****     if (!(pname = isfunction ? pf->name : pv->name))
  80              		.loc 1 20 3 is_stmt 1 view .LVU14
  21:/home/stero141/Projects/MicrocontrollersProjects/opentx-release-2.3.15/radio/src/thirdparty/Lua/src/lrotable.c ****       break;
  81              		.loc 1 21 5 view .LVU15
  82              	@ /home/stero141/Projects/MicrocontrollersProjects/opentx-release-2.3.15/radio/src/thirdparty/Lua/s
  21:/home/stero141/Projects/MicrocontrollersProjects/opentx-release-2.3.15/radio/src/thirdparty/Lua/src/lrotable.c ****       break;
  83              		.loc 1 21 41 is_stmt 0 discriminator 1 view .LVU16
  84 000c 2068     		ldr	r0, [r4]	@ iftmp.0_19, MEM[(const char * *)pf_18]
  85              	.LVL5:
  86              	@ /home/stero141/Projects/MicrocontrollersProjects/opentx-release-2.3.15/radio/src/thirdparty/Lua/s
  21:/home/stero141/Projects/MicrocontrollersProjects/opentx-release-2.3.15/radio/src/thirdparty/Lua/src/lrotable.c ****       break;
  87              		.loc 1 21 8 discriminator 4 view .LVU17
  88 000e 58B1     		cbz	r0, .L2	@ iftmp.0_19,
  23:/home/stero141/Projects/MicrocontrollersProjects/opentx-release-2.3.15/radio/src/thirdparty/Lua/src/lrotable.c ****       if (isfunction) {
  89              		.loc 1 23 5 is_stmt 1 view .LVU18
ARM GAS  /tmp/cc7hh7FW.s 			page 4


  90              	@ /home/stero141/Projects/MicrocontrollersProjects/opentx-release-2.3.15/radio/src/thirdparty/Lua/s
  23:/home/stero141/Projects/MicrocontrollersProjects/opentx-release-2.3.15/radio/src/thirdparty/Lua/src/lrotable.c ****       if (isfunction) {
  91              		.loc 1 23 10 is_stmt 0 view .LVU19
  92 0010 3146     		mov	r1, r6	@, key
  93 0012 FFF7FEFF 		bl	strcmp		@
  94              	.LVL6:
  95              	@ /home/stero141/Projects/MicrocontrollersProjects/opentx-release-2.3.15/radio/src/thirdparty/Lua/s
  23:/home/stero141/Projects/MicrocontrollersProjects/opentx-release-2.3.15/radio/src/thirdparty/Lua/src/lrotable.c ****       if (isfunction) {
  96              		.loc 1 23 8 discriminator 1 view .LVU20
  97 0016 28B9     		cbnz	r0, .L3	@ tmp137,
  24:/home/stero141/Projects/MicrocontrollersProjects/opentx-release-2.3.15/radio/src/thirdparty/Lua/src/lrotable.c ****         setlfvalue(found, pf->func);
  98              		.loc 1 24 7 is_stmt 1 view .LVU21
  99              	.LBB20:
  25:/home/stero141/Projects/MicrocontrollersProjects/opentx-release-2.3.15/radio/src/thirdparty/Lua/src/lrotable.c ****       }
 100              		.loc 1 25 9 view .LVU22
 101              	.LVL7:
  25:/home/stero141/Projects/MicrocontrollersProjects/opentx-release-2.3.15/radio/src/thirdparty/Lua/src/lrotable.c ****       }
 102              		.loc 1 25 9 view .LVU23
 103 0018 6368     		ldr	r3, [r4, #4]	@ pf_18->func, pf_18->func
 104 001a 2B60     		str	r3, [r5]	@ unaligned	@ pf_18->func, val_10(D)->value_.p
  25:/home/stero141/Projects/MicrocontrollersProjects/opentx-release-2.3.15/radio/src/thirdparty/Lua/src/lrotable.c ****       }
 105              		.loc 1 25 9 view .LVU24
 106              	.LBE20:
  25:/home/stero141/Projects/MicrocontrollersProjects/opentx-release-2.3.15/radio/src/thirdparty/Lua/src/lrotable.c ****       }
 107              		.loc 1 25 36 view .LVU25
  28:/home/stero141/Projects/MicrocontrollersProjects/opentx-release-2.3.15/radio/src/thirdparty/Lua/src/lrotable.c ****       }
 108              		.loc 1 28 36 discriminator 1 view .LVU26
  30:/home/stero141/Projects/MicrocontrollersProjects/opentx-release-2.3.15/radio/src/thirdparty/Lua/src/lrotable.c ****     }
 109              		.loc 1 30 7 view .LVU27
 110              	.LVL8:
 111              	.LBB21:
 112              	@ /home/stero141/Projects/MicrocontrollersProjects/opentx-release-2.3.15/radio/src/thirdparty/Lua/s
  25:/home/stero141/Projects/MicrocontrollersProjects/opentx-release-2.3.15/radio/src/thirdparty/Lua/src/lrotable.c ****       }
 113              		.loc 1 25 9 is_stmt 0 view .LVU28
 114 001c 0323     		movs	r3, #3	@ _47,
 115              	.LVL9:
 116              	.L4:
  25:/home/stero141/Projects/MicrocontrollersProjects/opentx-release-2.3.15/radio/src/thirdparty/Lua/src/lrotable.c ****       }
 117              		.loc 1 25 9 view .LVU29
 118              	.LBE21:
 119              	.LBE19:
 120              	.LBE18:
 121              	.LBE17:
 122              	.LBE16:
 123              	.LBB25:
 124              	.LBB26:
 125              	.LBB27:
 126              	.LBB28:
 127              	.LBB29:
 128              	@ /home/stero141/Projects/MicrocontrollersProjects/opentx-release-2.3.15/radio/src/thirdparty/Lua/s
  28:/home/stero141/Projects/MicrocontrollersProjects/opentx-release-2.3.15/radio/src/thirdparty/Lua/src/lrotable.c ****       }
 129              		.loc 1 28 9 view .LVU30
 130 001e 2B72     		strb	r3, [r5, #8]	@ _47, val_10(D)->tt_
 131              	.LBE29:
 132              	.LBE28:
 133              	.LBE27:
 134              	.LBE26:
ARM GAS  /tmp/cc7hh7FW.s 			page 5


 135              	.LBE25:
 136              	@ /home/stero141/Projects/MicrocontrollersProjects/opentx-release-2.3.15/radio/src/thirdparty/Lua/s
  68:/home/stero141/Projects/MicrocontrollersProjects/opentx-release-2.3.15/radio/src/thirdparty/Lua/src/lrotable.c ****     TRACE_LUA_INTERNALS("luaR_findentry(%p[%s], '%s') = FUNCTION %p", table, table->name, key, lfva
  69:/home/stero141/Projects/MicrocontrollersProjects/opentx-release-2.3.15/radio/src/thirdparty/Lua/src/lrotable.c ****     return 1;
 137              		.loc 1 69 12 view .LVU31
 138 0020 0120     		movs	r0, #1	@ <retval>,
 139              	.L6:
 140              	@ /home/stero141/Projects/MicrocontrollersProjects/opentx-release-2.3.15/radio/src/thirdparty/Lua/s
  70:/home/stero141/Projects/MicrocontrollersProjects/opentx-release-2.3.15/radio/src/thirdparty/Lua/src/lrotable.c ****   }
  71:/home/stero141/Projects/MicrocontrollersProjects/opentx-release-2.3.15/radio/src/thirdparty/Lua/src/lrotable.c ****   else if (luaR_findkey(table->pvalues, key, LUAR_FINDVALUE, val)) {
  72:/home/stero141/Projects/MicrocontrollersProjects/opentx-release-2.3.15/radio/src/thirdparty/Lua/src/lrotable.c ****     /* Then at the values */
  73:/home/stero141/Projects/MicrocontrollersProjects/opentx-release-2.3.15/radio/src/thirdparty/Lua/src/lrotable.c ****     TRACE_LUA_INTERNALS("luaR_findentry(%p[%s], '%s') = NUMBER %g", table, table->name, key, nvalue
  74:/home/stero141/Projects/MicrocontrollersProjects/opentx-release-2.3.15/radio/src/thirdparty/Lua/src/lrotable.c ****     return 1;
  75:/home/stero141/Projects/MicrocontrollersProjects/opentx-release-2.3.15/radio/src/thirdparty/Lua/src/lrotable.c ****   }
  76:/home/stero141/Projects/MicrocontrollersProjects/opentx-release-2.3.15/radio/src/thirdparty/Lua/src/lrotable.c ****   TRACE_LUA_INTERNALS("luaR_findentry(%p[%s], '%s') = NOT FOUND", table, table->name, key);
  77:/home/stero141/Projects/MicrocontrollersProjects/opentx-release-2.3.15/radio/src/thirdparty/Lua/src/lrotable.c ****   return 0;
  78:/home/stero141/Projects/MicrocontrollersProjects/opentx-release-2.3.15/radio/src/thirdparty/Lua/src/lrotable.c **** }
 141              		.loc 1 78 1 view .LVU32
 142 0022 F8BD     		pop	{r3, r4, r5, r6, r7, pc}	@
 143              	.LVL10:
 144              	.L3:
 145              	.LBB35:
 146              	.LBB24:
 147              	.LBB23:
 148              	.LBB22:
  32:/home/stero141/Projects/MicrocontrollersProjects/opentx-release-2.3.15/radio/src/thirdparty/Lua/src/lrotable.c ****   }
 149              		.loc 1 32 5 is_stmt 1 view .LVU33
 150              	@ /home/stero141/Projects/MicrocontrollersProjects/opentx-release-2.3.15/radio/src/thirdparty/Lua/s
  32:/home/stero141/Projects/MicrocontrollersProjects/opentx-release-2.3.15/radio/src/thirdparty/Lua/src/lrotable.c ****   }
 151              		.loc 1 32 8 is_stmt 0 view .LVU34
 152 0024 0834     		adds	r4, r4, #8	@ pf, pf,
 153              	.LVL11:
  32:/home/stero141/Projects/MicrocontrollersProjects/opentx-release-2.3.15/radio/src/thirdparty/Lua/src/lrotable.c ****   }
 154              		.loc 1 32 12 is_stmt 1 view .LVU35
  20:/home/stero141/Projects/MicrocontrollersProjects/opentx-release-2.3.15/radio/src/thirdparty/Lua/src/lrotable.c ****     if (!(pname = isfunction ? pf->name : pv->name))
 155              		.loc 1 20 8 view .LVU36
 156              	@ /home/stero141/Projects/MicrocontrollersProjects/opentx-release-2.3.15/radio/src/thirdparty/Lua/s
  21:/home/stero141/Projects/MicrocontrollersProjects/opentx-release-2.3.15/radio/src/thirdparty/Lua/src/lrotable.c ****       break;
 157              		.loc 1 21 8 is_stmt 0 view .LVU37
 158 0026 F1E7     		b	.L5		@
 159              	.LVL12:
 160              	.L2:
  21:/home/stero141/Projects/MicrocontrollersProjects/opentx-release-2.3.15/radio/src/thirdparty/Lua/src/lrotable.c ****       break;
 161              		.loc 1 21 8 view .LVU38
 162              	.LBE22:
 163              	.LBE23:
 164              	.LBE24:
 165              	.LBE35:
  71:/home/stero141/Projects/MicrocontrollersProjects/opentx-release-2.3.15/radio/src/thirdparty/Lua/src/lrotable.c ****     /* Then at the values */
 166              		.loc 1 71 8 is_stmt 1 view .LVU39
 167              	@ /home/stero141/Projects/MicrocontrollersProjects/opentx-release-2.3.15/radio/src/thirdparty/Lua/s
  71:/home/stero141/Projects/MicrocontrollersProjects/opentx-release-2.3.15/radio/src/thirdparty/Lua/src/lrotable.c ****     /* Then at the values */
 168              		.loc 1 71 30 is_stmt 0 view .LVU40
 169 0028 BC68     		ldr	r4, [r7, #8]	@ pv, MEM[(struct luaR_table *)data_7(D)].pvalues
 170              	.LVL13:
 171              	.LBB36:
 172              	.LBI25:
ARM GAS  /tmp/cc7hh7FW.s 			page 6


  13:/home/stero141/Projects/MicrocontrollersProjects/opentx-release-2.3.15/radio/src/thirdparty/Lua/src/lrotable.c ****   const char *pname;
 173              		.loc 1 13 20 is_stmt 1 view .LVU41
 174              	.LBB34:
  14:/home/stero141/Projects/MicrocontrollersProjects/opentx-release-2.3.15/radio/src/thirdparty/Lua/src/lrotable.c ****   const luaL_Reg *pf = (luaL_Reg*)where;
 175              		.loc 1 14 3 view .LVU42
  15:/home/stero141/Projects/MicrocontrollersProjects/opentx-release-2.3.15/radio/src/thirdparty/Lua/src/lrotable.c ****   const luaR_value_entry *pv = (luaR_value_entry*)where;
 176              		.loc 1 15 3 view .LVU43
  16:/home/stero141/Projects/MicrocontrollersProjects/opentx-release-2.3.15/radio/src/thirdparty/Lua/src/lrotable.c ****   int isfunction = type == LUAR_FINDFUNCTION;
 177              		.loc 1 16 3 view .LVU44
  17:/home/stero141/Projects/MicrocontrollersProjects/opentx-release-2.3.15/radio/src/thirdparty/Lua/src/lrotable.c ****   if(!where)
 178              		.loc 1 17 3 view .LVU45
  18:/home/stero141/Projects/MicrocontrollersProjects/opentx-release-2.3.15/radio/src/thirdparty/Lua/src/lrotable.c ****     return 0;
 179              		.loc 1 18 3 view .LVU46
 180              	@ /home/stero141/Projects/MicrocontrollersProjects/opentx-release-2.3.15/radio/src/thirdparty/Lua/s
  18:/home/stero141/Projects/MicrocontrollersProjects/opentx-release-2.3.15/radio/src/thirdparty/Lua/src/lrotable.c ****     return 0;
 181              		.loc 1 18 5 is_stmt 0 view .LVU47
 182 002a 74B1     		cbz	r4, .L9	@ pv,
 183              	.LVL14:
 184              	.L8:
 185              	.LBB33:
 186              	.LBB32:
  20:/home/stero141/Projects/MicrocontrollersProjects/opentx-release-2.3.15/radio/src/thirdparty/Lua/src/lrotable.c ****     if (!(pname = isfunction ? pf->name : pv->name))
 187              		.loc 1 20 3 is_stmt 1 view .LVU48
  21:/home/stero141/Projects/MicrocontrollersProjects/opentx-release-2.3.15/radio/src/thirdparty/Lua/src/lrotable.c ****       break;
 188              		.loc 1 21 5 view .LVU49
 189              	@ /home/stero141/Projects/MicrocontrollersProjects/opentx-release-2.3.15/radio/src/thirdparty/Lua/s
  21:/home/stero141/Projects/MicrocontrollersProjects/opentx-release-2.3.15/radio/src/thirdparty/Lua/src/lrotable.c ****       break;
 190              		.loc 1 21 41 is_stmt 0 discriminator 2 view .LVU50
 191 002c 2068     		ldr	r0, [r4]	@ iftmp.0_36, MEM[(const char * *)pv_35]
 192              	.LVL15:
 193              	@ /home/stero141/Projects/MicrocontrollersProjects/opentx-release-2.3.15/radio/src/thirdparty/Lua/s
  21:/home/stero141/Projects/MicrocontrollersProjects/opentx-release-2.3.15/radio/src/thirdparty/Lua/src/lrotable.c ****       break;
 194              		.loc 1 21 8 discriminator 4 view .LVU51
 195 002e 0028     		cmp	r0, #0	@ iftmp.0_36
 196 0030 F7D0     		beq	.L6	@
  23:/home/stero141/Projects/MicrocontrollersProjects/opentx-release-2.3.15/radio/src/thirdparty/Lua/src/lrotable.c ****       if (isfunction) {
 197              		.loc 1 23 5 is_stmt 1 view .LVU52
 198              	@ /home/stero141/Projects/MicrocontrollersProjects/opentx-release-2.3.15/radio/src/thirdparty/Lua/s
  23:/home/stero141/Projects/MicrocontrollersProjects/opentx-release-2.3.15/radio/src/thirdparty/Lua/src/lrotable.c ****       if (isfunction) {
 199              		.loc 1 23 10 is_stmt 0 view .LVU53
 200 0032 3146     		mov	r1, r6	@, key
 201 0034 FFF7FEFF 		bl	strcmp		@
 202              	.LVL16:
 203              	@ /home/stero141/Projects/MicrocontrollersProjects/opentx-release-2.3.15/radio/src/thirdparty/Lua/s
  23:/home/stero141/Projects/MicrocontrollersProjects/opentx-release-2.3.15/radio/src/thirdparty/Lua/src/lrotable.c ****       if (isfunction) {
 204              		.loc 1 23 8 discriminator 1 view .LVU54
 205 0038 28B9     		cbnz	r0, .L7	@ tmp138,
  24:/home/stero141/Projects/MicrocontrollersProjects/opentx-release-2.3.15/radio/src/thirdparty/Lua/src/lrotable.c ****         setlfvalue(found, pf->func);
 206              		.loc 1 24 7 is_stmt 1 view .LVU55
 207              	.LBB30:
  28:/home/stero141/Projects/MicrocontrollersProjects/opentx-release-2.3.15/radio/src/thirdparty/Lua/src/lrotable.c ****       }
 208              		.loc 1 28 9 view .LVU56
 209              	.LVL17:
  28:/home/stero141/Projects/MicrocontrollersProjects/opentx-release-2.3.15/radio/src/thirdparty/Lua/src/lrotable.c ****       }
 210              		.loc 1 28 9 view .LVU57
 211 003a A368     		ldr	r3, [r4, #8]	@ pv_35->value, pv_35->value
 212 003c 2B60     		str	r3, [r5]	@ unaligned	@ pv_35->value, val_10(D)->value_.n
ARM GAS  /tmp/cc7hh7FW.s 			page 7


 213 003e E368     		ldr	r3, [r4, #12]	@ pv_35->value, pv_35->value
 214 0040 6B60     		str	r3, [r5, #4]	@ unaligned	@ pv_35->value, val_10(D)->value_.n
  28:/home/stero141/Projects/MicrocontrollersProjects/opentx-release-2.3.15/radio/src/thirdparty/Lua/src/lrotable.c ****       }
 215              		.loc 1 28 9 view .LVU58
 216              	.LBE30:
  28:/home/stero141/Projects/MicrocontrollersProjects/opentx-release-2.3.15/radio/src/thirdparty/Lua/src/lrotable.c ****       }
 217              		.loc 1 28 36 discriminator 1 view .LVU59
  30:/home/stero141/Projects/MicrocontrollersProjects/opentx-release-2.3.15/radio/src/thirdparty/Lua/src/lrotable.c ****     }
 218              		.loc 1 30 7 view .LVU60
 219              	.LVL18:
 220              	.LBB31:
 221              	@ /home/stero141/Projects/MicrocontrollersProjects/opentx-release-2.3.15/radio/src/thirdparty/Lua/s
  28:/home/stero141/Projects/MicrocontrollersProjects/opentx-release-2.3.15/radio/src/thirdparty/Lua/src/lrotable.c ****       }
 222              		.loc 1 28 9 is_stmt 0 view .LVU61
 223 0042 0523     		movs	r3, #5	@ _47,
 224 0044 EBE7     		b	.L4		@
 225              	.LVL19:
 226              	.L7:
  28:/home/stero141/Projects/MicrocontrollersProjects/opentx-release-2.3.15/radio/src/thirdparty/Lua/src/lrotable.c ****       }
 227              		.loc 1 28 9 view .LVU62
 228              	.LBE31:
  32:/home/stero141/Projects/MicrocontrollersProjects/opentx-release-2.3.15/radio/src/thirdparty/Lua/src/lrotable.c ****   }
 229              		.loc 1 32 5 is_stmt 1 view .LVU63
  32:/home/stero141/Projects/MicrocontrollersProjects/opentx-release-2.3.15/radio/src/thirdparty/Lua/src/lrotable.c ****   }
 230              		.loc 1 32 12 view .LVU64
 231              	@ /home/stero141/Projects/MicrocontrollersProjects/opentx-release-2.3.15/radio/src/thirdparty/Lua/s
  32:/home/stero141/Projects/MicrocontrollersProjects/opentx-release-2.3.15/radio/src/thirdparty/Lua/src/lrotable.c ****   }
 232              		.loc 1 32 15 is_stmt 0 view .LVU65
 233 0046 1034     		adds	r4, r4, #16	@ pv, pv,
 234              	.LVL20:
  20:/home/stero141/Projects/MicrocontrollersProjects/opentx-release-2.3.15/radio/src/thirdparty/Lua/src/lrotable.c ****     if (!(pname = isfunction ? pf->name : pv->name))
 235              		.loc 1 20 8 is_stmt 1 view .LVU66
 236              	@ /home/stero141/Projects/MicrocontrollersProjects/opentx-release-2.3.15/radio/src/thirdparty/Lua/s
  21:/home/stero141/Projects/MicrocontrollersProjects/opentx-release-2.3.15/radio/src/thirdparty/Lua/src/lrotable.c ****       break;
 237              		.loc 1 21 8 is_stmt 0 view .LVU67
 238 0048 F0E7     		b	.L8		@
 239              	.LVL21:
 240              	.L9:
  21:/home/stero141/Projects/MicrocontrollersProjects/opentx-release-2.3.15/radio/src/thirdparty/Lua/src/lrotable.c ****       break;
 241              		.loc 1 21 8 view .LVU68
 242              	.LBE32:
 243              	.LBE33:
 244              	.LBE34:
 245              	.LBE36:
 246              	@ /home/stero141/Projects/MicrocontrollersProjects/opentx-release-2.3.15/radio/src/thirdparty/Lua/s
  77:/home/stero141/Projects/MicrocontrollersProjects/opentx-release-2.3.15/radio/src/thirdparty/Lua/src/lrotable.c **** }
 247              		.loc 1 77 10 view .LVU69
 248 004a 2046     		mov	r0, r4	@ <retval>, pv
 249 004c E9E7     		b	.L6		@
 250              		.cfi_endproc
 251              	.LFE12:
 252              		.size	luaR_findentry, .-luaR_findentry
 253              		.section	.rodata.luaR_findglobal.str1.1,"aMS",%progbits,1
 254              	.LC0:
 255 0000 5F5F00   		.ascii	"__\000"
 256              		.section	.text.luaR_findglobal,"ax",%progbits
 257              		.align	1
ARM GAS  /tmp/cc7hh7FW.s 			page 8


 258              		.global	luaR_findglobal
 259              		.syntax unified
 260              		.thumb
 261              		.thumb_func
 262              		.type	luaR_findglobal, %function
 263              	luaR_findglobal:
 264              	.LVL22:
 265              	.LFB11:
  39:/home/stero141/Projects/MicrocontrollersProjects/opentx-release-2.3.15/radio/src/thirdparty/Lua/src/lrotable.c ****   unsigned i;
 266              		.loc 1 39 62 is_stmt 1 view -0
 267              		.cfi_startproc
 268              		@ args = 0, pretend = 0, frame = 0
 269              		@ frame_needed = 0, uses_anonymous_args = 0
  40:/home/stero141/Projects/MicrocontrollersProjects/opentx-release-2.3.15/radio/src/thirdparty/Lua/src/lrotable.c ****   if (strlen(name) > LUA_MAX_ROTABLE_NAME) {
 270              		.loc 1 40 3 view .LVU71
  41:/home/stero141/Projects/MicrocontrollersProjects/opentx-release-2.3.15/radio/src/thirdparty/Lua/src/lrotable.c ****     TRACE_LUA_INTERNALS("luaR_findglobal('%s') = NAME TOO LONG", name);
 271              		.loc 1 41 3 view .LVU72
 272              	@ /home/stero141/Projects/MicrocontrollersProjects/opentx-release-2.3.15/radio/src/thirdparty/Lua/s
  39:/home/stero141/Projects/MicrocontrollersProjects/opentx-release-2.3.15/radio/src/thirdparty/Lua/src/lrotable.c ****   unsigned i;
 273              		.loc 1 39 62 is_stmt 0 view .LVU73
 274 0000 F8B5     		push	{r3, r4, r5, r6, r7, lr}	@
 275              	.LCFI1:
 276              		.cfi_def_cfa_offset 24
 277              		.cfi_offset 3, -24
 278              		.cfi_offset 4, -20
 279              		.cfi_offset 5, -16
 280              		.cfi_offset 6, -12
 281              		.cfi_offset 7, -8
 282              		.cfi_offset 14, -4
 283              	@ /home/stero141/Projects/MicrocontrollersProjects/opentx-release-2.3.15/radio/src/thirdparty/Lua/s
  39:/home/stero141/Projects/MicrocontrollersProjects/opentx-release-2.3.15/radio/src/thirdparty/Lua/src/lrotable.c ****   unsigned i;
 284              		.loc 1 39 62 view .LVU74
 285 0002 0646     		mov	r6, r0	@ name, tmp134
 286 0004 0D46     		mov	r5, r1	@ val, tmp135
 287              	@ /home/stero141/Projects/MicrocontrollersProjects/opentx-release-2.3.15/radio/src/thirdparty/Lua/s
  41:/home/stero141/Projects/MicrocontrollersProjects/opentx-release-2.3.15/radio/src/thirdparty/Lua/src/lrotable.c ****     TRACE_LUA_INTERNALS("luaR_findglobal('%s') = NAME TOO LONG", name);
 288              		.loc 1 41 7 view .LVU75
 289 0006 FFF7FEFF 		bl	strlen		@
 290              	.LVL23:
 291              	@ /home/stero141/Projects/MicrocontrollersProjects/opentx-release-2.3.15/radio/src/thirdparty/Lua/s
  41:/home/stero141/Projects/MicrocontrollersProjects/opentx-release-2.3.15/radio/src/thirdparty/Lua/src/lrotable.c ****     TRACE_LUA_INTERNALS("luaR_findglobal('%s') = NAME TOO LONG", name);
 292              		.loc 1 41 6 discriminator 1 view .LVU76
 293 000a 2028     		cmp	r0, #32	@ tmp136,
 294 000c 02D8     		bhi	.L18		@,
 295 000e 0F4C     		ldr	r4, .L26	@ ivtmp.32,
 296              	.L19:
  45:/home/stero141/Projects/MicrocontrollersProjects/opentx-release-2.3.15/radio/src/thirdparty/Lua/src/lrotable.c ****     void * table = (void *)(&lua_rotable[i]);
 297              		.loc 1 45 13 is_stmt 1 discriminator 1 view .LVU77
 298              	@ /home/stero141/Projects/MicrocontrollersProjects/opentx-release-2.3.15/radio/src/thirdparty/Lua/s
  45:/home/stero141/Projects/MicrocontrollersProjects/opentx-release-2.3.15/radio/src/thirdparty/Lua/src/lrotable.c ****     void * table = (void *)(&lua_rotable[i]);
 299              		.loc 1 45 27 is_stmt 0 discriminator 1 view .LVU78
 300 0010 2768     		ldr	r7, [r4]	@ _5, MEM[(const char * *)_26]
 301              	@ /home/stero141/Projects/MicrocontrollersProjects/opentx-release-2.3.15/radio/src/thirdparty/Lua/s
  45:/home/stero141/Projects/MicrocontrollersProjects/opentx-release-2.3.15/radio/src/thirdparty/Lua/src/lrotable.c ****     void * table = (void *)(&lua_rotable[i]);
 302              		.loc 1 45 13 discriminator 1 view .LVU79
 303 0012 0FB9     		cbnz	r7, .L25	@ _5,
 304              	.L18:
ARM GAS  /tmp/cc7hh7FW.s 			page 9


 305              	@ /home/stero141/Projects/MicrocontrollersProjects/opentx-release-2.3.15/radio/src/thirdparty/Lua/s
  43:/home/stero141/Projects/MicrocontrollersProjects/opentx-release-2.3.15/radio/src/thirdparty/Lua/src/lrotable.c ****   }
 306              		.loc 1 43 12 view .LVU80
 307 0014 0020     		movs	r0, #0	@ <retval>,
 308              	.L20:
 309              	@ /home/stero141/Projects/MicrocontrollersProjects/opentx-release-2.3.15/radio/src/thirdparty/Lua/s
  61:/home/stero141/Projects/MicrocontrollersProjects/opentx-release-2.3.15/radio/src/thirdparty/Lua/src/lrotable.c **** 
 310              		.loc 1 61 1 view .LVU81
 311 0016 F8BD     		pop	{r3, r4, r5, r6, r7, pc}	@
 312              	.LVL24:
 313              	.L25:
 314              	.LBB37:
  46:/home/stero141/Projects/MicrocontrollersProjects/opentx-release-2.3.15/radio/src/thirdparty/Lua/src/lrotable.c ****     if (!strcmp(lua_rotable[i].name, name)) {
 315              		.loc 1 46 5 is_stmt 1 view .LVU82
  47:/home/stero141/Projects/MicrocontrollersProjects/opentx-release-2.3.15/radio/src/thirdparty/Lua/src/lrotable.c ****       setrvalue(val, table);
 316              		.loc 1 47 5 view .LVU83
 317              	@ /home/stero141/Projects/MicrocontrollersProjects/opentx-release-2.3.15/radio/src/thirdparty/Lua/s
  47:/home/stero141/Projects/MicrocontrollersProjects/opentx-release-2.3.15/radio/src/thirdparty/Lua/src/lrotable.c ****       setrvalue(val, table);
 318              		.loc 1 47 10 is_stmt 0 view .LVU84
 319 0018 3146     		mov	r1, r6	@, name
 320 001a 3846     		mov	r0, r7	@, _5
 321 001c FFF7FEFF 		bl	strcmp		@
 322              	.LVL25:
 323              	@ /home/stero141/Projects/MicrocontrollersProjects/opentx-release-2.3.15/radio/src/thirdparty/Lua/s
  47:/home/stero141/Projects/MicrocontrollersProjects/opentx-release-2.3.15/radio/src/thirdparty/Lua/src/lrotable.c ****       setrvalue(val, table);
 324              		.loc 1 47 8 discriminator 1 view .LVU85
 325 0020 20B9     		cbnz	r0, .L21	@ tmp137,
 326              	.LBB38:
  48:/home/stero141/Projects/MicrocontrollersProjects/opentx-release-2.3.15/radio/src/thirdparty/Lua/src/lrotable.c ****       TRACE_LUA_INTERNALS("luaR_findglobal('%s') = TABLE %p (%s)", name, table, lua_rotable[i].name
 327              		.loc 1 48 7 is_stmt 1 view .LVU86
 328              	.LVL26:
  48:/home/stero141/Projects/MicrocontrollersProjects/opentx-release-2.3.15/radio/src/thirdparty/Lua/src/lrotable.c ****       TRACE_LUA_INTERNALS("luaR_findglobal('%s') = TABLE %p (%s)", name, table, lua_rotable[i].name
 329              		.loc 1 48 7 view .LVU87
 330 0022 0223     		movs	r3, #2	@ tmp126,
 331 0024 2C60     		str	r4, [r5]	@ unaligned	@ ivtmp.32, val_14(D)->value_.p
  48:/home/stero141/Projects/MicrocontrollersProjects/opentx-release-2.3.15/radio/src/thirdparty/Lua/src/lrotable.c ****       TRACE_LUA_INTERNALS("luaR_findglobal('%s') = TABLE %p (%s)", name, table, lua_rotable[i].name
 332              		.loc 1 48 7 view .LVU88
 333 0026 2B72     		strb	r3, [r5, #8]	@ tmp126, val_14(D)->tt_
 334              	.LBE38:
  48:/home/stero141/Projects/MicrocontrollersProjects/opentx-release-2.3.15/radio/src/thirdparty/Lua/src/lrotable.c ****       TRACE_LUA_INTERNALS("luaR_findglobal('%s') = TABLE %p (%s)", name, table, lua_rotable[i].name
 335              		.loc 1 48 28 view .LVU89
  49:/home/stero141/Projects/MicrocontrollersProjects/opentx-release-2.3.15/radio/src/thirdparty/Lua/src/lrotable.c ****       return 1;
 336              		.loc 1 49 101 view .LVU90
  50:/home/stero141/Projects/MicrocontrollersProjects/opentx-release-2.3.15/radio/src/thirdparty/Lua/src/lrotable.c ****     }
 337              		.loc 1 50 7 view .LVU91
 338              	.LVL27:
 339              	.L22:
 340              	@ /home/stero141/Projects/MicrocontrollersProjects/opentx-release-2.3.15/radio/src/thirdparty/Lua/s
  50:/home/stero141/Projects/MicrocontrollersProjects/opentx-release-2.3.15/radio/src/thirdparty/Lua/src/lrotable.c ****     }
 341              		.loc 1 50 14 is_stmt 0 view .LVU92
 342 0028 0120     		movs	r0, #1	@ <retval>,
 343 002a F4E7     		b	.L20		@
 344              	.L21:
  52:/home/stero141/Projects/MicrocontrollersProjects/opentx-release-2.3.15/radio/src/thirdparty/Lua/src/lrotable.c ****       if (luaR_findentry(table, name, val)) {
 345              		.loc 1 52 5 is_stmt 1 view .LVU93
 346              	@ /home/stero141/Projects/MicrocontrollersProjects/opentx-release-2.3.15/radio/src/thirdparty/Lua/s
  52:/home/stero141/Projects/MicrocontrollersProjects/opentx-release-2.3.15/radio/src/thirdparty/Lua/src/lrotable.c ****       if (luaR_findentry(table, name, val)) {
ARM GAS  /tmp/cc7hh7FW.s 			page 10


 347              		.loc 1 52 10 is_stmt 0 view .LVU94
 348 002c 0849     		ldr	r1, .L26+4	@,
 349 002e 0222     		movs	r2, #2	@,
 350 0030 3846     		mov	r0, r7	@, _5
 351 0032 FFF7FEFF 		bl	strncmp		@
 352              	.LVL28:
 353              	@ /home/stero141/Projects/MicrocontrollersProjects/opentx-release-2.3.15/radio/src/thirdparty/Lua/s
  52:/home/stero141/Projects/MicrocontrollersProjects/opentx-release-2.3.15/radio/src/thirdparty/Lua/src/lrotable.c ****       if (luaR_findentry(table, name, val)) {
 354              		.loc 1 52 8 discriminator 1 view .LVU95
 355 0036 08B1     		cbz	r0, .L23	@ tmp138,
 356              	.L24:
  52:/home/stero141/Projects/MicrocontrollersProjects/opentx-release-2.3.15/radio/src/thirdparty/Lua/src/lrotable.c ****       if (luaR_findentry(table, name, val)) {
 357              		.loc 1 52 8 discriminator 1 view .LVU96
 358              	.LBE37:
  45:/home/stero141/Projects/MicrocontrollersProjects/opentx-release-2.3.15/radio/src/thirdparty/Lua/src/lrotable.c ****     void * table = (void *)(&lua_rotable[i]);
 359              		.loc 1 45 35 is_stmt 1 discriminator 2 view .LVU97
 360 0038 0C34     		adds	r4, r4, #12	@ ivtmp.32, ivtmp.32,
 361              	.LVL29:
  45:/home/stero141/Projects/MicrocontrollersProjects/opentx-release-2.3.15/radio/src/thirdparty/Lua/src/lrotable.c ****     void * table = (void *)(&lua_rotable[i]);
 362              		.loc 1 45 35 is_stmt 0 discriminator 2 view .LVU98
 363 003a E9E7     		b	.L19		@
 364              	.LVL30:
 365              	.L23:
 366              	.LBB39:
  53:/home/stero141/Projects/MicrocontrollersProjects/opentx-release-2.3.15/radio/src/thirdparty/Lua/src/lrotable.c ****         TRACE_LUA_INTERNALS("luaR_findglobal('%s') = FOUND in table '%s'", name, lua_rotable[i].nam
 367              		.loc 1 53 7 is_stmt 1 view .LVU99
 368              	@ /home/stero141/Projects/MicrocontrollersProjects/opentx-release-2.3.15/radio/src/thirdparty/Lua/s
  53:/home/stero141/Projects/MicrocontrollersProjects/opentx-release-2.3.15/radio/src/thirdparty/Lua/src/lrotable.c ****         TRACE_LUA_INTERNALS("luaR_findglobal('%s') = FOUND in table '%s'", name, lua_rotable[i].nam
 369              		.loc 1 53 11 is_stmt 0 view .LVU100
 370 003c 2A46     		mov	r2, r5	@, val
 371 003e 3146     		mov	r1, r6	@, name
 372 0040 2046     		mov	r0, r4	@, ivtmp.32
 373 0042 FFF7FEFF 		bl	luaR_findentry		@
 374              	.LVL31:
 375              	@ /home/stero141/Projects/MicrocontrollersProjects/opentx-release-2.3.15/radio/src/thirdparty/Lua/s
  53:/home/stero141/Projects/MicrocontrollersProjects/opentx-release-2.3.15/radio/src/thirdparty/Lua/src/lrotable.c ****         TRACE_LUA_INTERNALS("luaR_findglobal('%s') = FOUND in table '%s'", name, lua_rotable[i].nam
 376              		.loc 1 53 10 discriminator 1 view .LVU101
 377 0046 0028     		cmp	r0, #0	@ tmp139
 378 0048 F6D0     		beq	.L24	@
 379 004a EDE7     		b	.L22		@
 380              	.L27:
 381              		.align	2
 382              	.L26:
 383 004c 00000000 		.word	lua_rotable
 384 0050 00000000 		.word	.LC0
 385              	.LBE39:
 386              		.cfi_endproc
 387              	.LFE11:
 388              		.size	luaR_findglobal, .-luaR_findglobal
 389              		.text
 390              	.Letext0:
 391              		.file 2 "/home/stero141/arm-toolchains/arm-gnu-toolchain-14.2.rel1-x86_64-arm-none-eabi/lib/gcc/ar
 392              		.file 3 "/home/stero141/arm-toolchains/arm-gnu-toolchain-14.2.rel1-x86_64-arm-none-eabi/arm-none-e
 393              		.file 4 "/home/stero141/arm-toolchains/arm-gnu-toolchain-14.2.rel1-x86_64-arm-none-eabi/arm-none-e
 394              		.file 5 "/home/stero141/Projects/MicrocontrollersProjects/opentx-release-2.3.15/radio/src/thirdpar
 395              		.file 6 "/home/stero141/Projects/MicrocontrollersProjects/opentx-release-2.3.15/radio/src/thirdpar
 396              		.file 7 "/home/stero141/Projects/MicrocontrollersProjects/opentx-release-2.3.15/radio/src/thirdpar
ARM GAS  /tmp/cc7hh7FW.s 			page 11


 397              		.file 8 "/home/stero141/Projects/MicrocontrollersProjects/opentx-release-2.3.15/radio/src/thirdpar
 398              		.file 9 "/home/stero141/arm-toolchains/arm-gnu-toolchain-14.2.rel1-x86_64-arm-none-eabi/arm-none-e