ARM GAS  /tmp/cc7hh7FW.s 			page 1


   1              		.cpu cortex-m4
   2              		.arch armv7e-m
   3              		.fpu fpv4-sp-d16
   4              		.eabi_attribute 27, 1	@ Tag_ABI_HardFP_use
   5              		.eabi_attribute 28, 1	@ Tag_ABI_VFP_args
   6              		.eabi_attribute 20, 1	@ Tag_ABI_FP_denormal
   7              		.eabi_attribute 21, 1	@ Tag_ABI_FP_exceptions
   8              		.eabi_attribute 23, 3	@ Tag_ABI_FP_number_model
   9              		.eabi_attribute 24, 1	@ Tag_ABI_align8_needed
  10              		.eabi_attribute 25, 1	@ Tag_ABI_align8_preserved
  11              		.eabi_attribute 26, 1	@ Tag_ABI_enum_size
  12              		.eabi_attribute 30, 4	@ Tag_ABI_optimization_goals
  13              		.eabi_attribute 34, 1	@ Tag_CPU_unaligned_access
  14              		.eabi_attribute 18, 4	@ Tag_ABI_PCS_wchar_t
  15              		.file	"lrotable.c"
  16              	@ GNU C17 (Arm GNU Toolchain 14.2.Rel1 (Build arm-14.52)) version 14.2.1 20241119 (arm-none-eabi)
  17              	@	compiled by GNU C version 9.2.1 20191120 (Red Hat 9.2.1-2), GMP version 6.2.1, MPFR version 3.1.6
  18              	
  19              	@ GGC heuristics: --param ggc-min-expand=100 --param ggc-min-heapsize=131072
  20              	@ options passed: -mcpu=cortex-m4 -mthumb -mfloat-abi=hard -mfpu=fpv4-sp-d16 -march=armv7e-m+fp -gd
  21              		.text
  22              	.Ltext0:
  23              		.cfi_sections	.debug_frame
  24              		.file 1 "/home/stero141/Projects/MicrocontrollersProjects/opentx-release-2.3.15/radio/src/thirdpar
  25              		.section	.text.luaR_findentry,"ax",%progbits
  26              		.align	1
  27              		.global	luaR_findentry
  28              		.syntax unified
  29              		.thumb
  30              		.thumb_func
  31              		.type	luaR_findentry, %function
  32              	luaR_findentry:
  33              	.LVL0:
  34              	.LFB12:
   1:/home/stero141/Projects/MicrocontrollersProjects/opentx-release-2.3.15/radio/src/thirdparty/Lua/src/lrotable.c **** /* Read-only tables for Lua */
   2:/home/stero141/Projects/MicrocontrollersProjects/opentx-release-2.3.15/radio/src/thirdparty/Lua/src/lrotable.c **** 
   3:/home/stero141/Projects/MicrocontrollersProjects/opentx-release-2.3.15/radio/src/thirdparty/Lua/src/lrotable.c **** #include <string.h>
   4:/home/stero141/Projects/MicrocontrollersProjects/opentx-release-2.3.15/radio/src/thirdparty/Lua/src/lrotable.c **** #include "lua.h"
   5:/home/stero141/Projects/MicrocontrollersProjects/opentx-release-2.3.15/radio/src/thirdparty/Lua/src/lrotable.c **** #include "lauxlib.h"
   6:/home/stero141/Projects/MicrocontrollersProjects/opentx-release-2.3.15/radio/src/thirdparty/Lua/src/lrotable.c **** #include "lrotable.h"
   7:/home/stero141/Projects/MicrocontrollersProjects/opentx-release-2.3.15/radio/src/thirdparty/Lua/src/lrotable.c **** 
   8:/home/stero141/Projects/MicrocontrollersProjects/opentx-release-2.3.15/radio/src/thirdparty/Lua/src/lrotable.c **** /* Local defines */
   9:/home/stero141/Projects/MicrocontrollersProjects/opentx-release-2.3.15/radio/src/thirdparty/Lua/src/lrotable.c **** #define LUAR_FINDFUNCTION     0
  10:/home/stero141/Projects/MicrocontrollersProjects/opentx-release-2.3.15/radio/src/thirdparty/Lua/src/lrotable.c **** #define LUAR_FINDVALUE        1
  11:/home/stero141/Projects/MicrocontrollersProjects/opentx-release-2.3.15/radio/src/thirdparty/Lua/src/lrotable.c **** 
  12:/home/stero141/Projects/MicrocontrollersProjects/opentx-release-2.3.15/radio/src/thirdparty/Lua/src/lrotable.c **** /* Utility function: find a key in a given table (of functions or constants) */
  13:/home/stero141/Projects/MicrocontrollersProjects/opentx-release-2.3.15/radio/src/thirdparty/Lua/src/lrotable.c **** static luaR_result luaR_findkey(const void * where, const char * key, int type, TValue * found) {
  14:/home/stero141/Projects/MicrocontrollersProjects/opentx-release-2.3.15/radio/src/thirdparty/Lua/src/lrotable.c ****   const char *pname;
  15:/home/stero141/Projects/MicrocontrollersProjects/opentx-release-2.3.15/radio/src/thirdparty/Lua/src/lrotable.c ****   const luaL_Reg *pf = (luaL_Reg*)where;
  16:/home/stero141/Projects/MicrocontrollersProjects/opentx-release-2.3.15/radio/src/thirdparty/Lua/src/lrotable.c ****   const luaR_value_entry *pv = (luaR_value_entry*)where;
  17:/home/stero141/Projects/MicrocontrollersProjects/opentx-release-2.3.15/radio/src/thirdparty/Lua/src/lrotable.c ****   int isfunction = type == LUAR_FINDFUNCTION;
  18:/home/stero141/Projects/MicrocontrollersProjects/opentx-release-2.3.15/radio/src/thirdparty/Lua/src/lrotable.c ****   if(!where)
  19:/home/stero141/Projects/MicrocontrollersProjects/opentx-release-2.3.15/radio/src/thirdparty/Lua/src/lrotable.c ****     return 0;
  20:/home/stero141/Projects/MicrocontrollersProjects/opentx-release-2.3.15/radio/src/thirdparty/Lua/src/lrotable.c ****   while(1) {
  21:/home/stero141/Projects/MicrocontrollersProjects/opentx-release-2.3.15/radio/src/thirdparty/Lua/src/lrotable.c ****     if (!(pname = isfunction ? pf->name : pv->name))
  22:/home/stero141/Projects/MicrocontrollersProjects/opentx-release-2.3.15/radio/src/thirdparty/Lua/src/lrotable.c ****       break;
  23:/home/stero141/Projects/MicrocontrollersProjects/opentx-release-2.3.15/radio/src/thirdparty/Lua/src/lrotable.c ****     if (!strcmp(pname, key)) {
ARM GAS  /tmp/cc7hh7FW.s 			page 2


  24:/home/stero141/Projects/MicrocontrollersProjects/opentx-release-2.3.15/radio/src/thirdparty/Lua/src/lrotable.c ****       if (isfunction) {
  25:/home/stero141/Projects/MicrocontrollersProjects/opentx-release-2.3.15/radio/src/thirdparty/Lua/src/lrotable.c ****         setlfvalue(found, pf->func);
  26:/home/stero141/Projects/MicrocontrollersProjects/opentx-release-2.3.15/radio/src/thirdparty/Lua/src/lrotable.c ****       }
  27:/home/stero141/Projects/MicrocontrollersProjects/opentx-release-2.3.15/radio/src/thirdparty/Lua/src/lrotable.c ****       else {
  28:/home/stero141/Projects/MicrocontrollersProjects/opentx-release-2.3.15/radio/src/thirdparty/Lua/src/lrotable.c ****         setnvalue(found, pv->value);
  29:/home/stero141/Projects/MicrocontrollersProjects/opentx-release-2.3.15/radio/src/thirdparty/Lua/src/lrotable.c ****       }
  30:/home/stero141/Projects/MicrocontrollersProjects/opentx-release-2.3.15/radio/src/thirdparty/Lua/src/lrotable.c ****       return 1;
  31:/home/stero141/Projects/MicrocontrollersProjects/opentx-release-2.3.15/radio/src/thirdparty/Lua/src/lrotable.c ****     }
  32:/home/stero141/Projects/MicrocontrollersProjects/opentx-release-2.3.15/radio/src/thirdparty/Lua/src/lrotable.c ****     pf ++; pv ++;
  33:/home/stero141/Projects/MicrocontrollersProjects/opentx-release-2.3.15/radio/src/thirdparty/Lua/src/lrotable.c ****   }
  34:/home/stero141/Projects/MicrocontrollersProjects/opentx-release-2.3.15/radio/src/thirdparty/Lua/src/lrotable.c ****   return 0;
  35:/home/stero141/Projects/MicrocontrollersProjects/opentx-release-2.3.15/radio/src/thirdparty/Lua/src/lrotable.c **** }
  36:/home/stero141/Projects/MicrocontrollersProjects/opentx-release-2.3.15/radio/src/thirdparty/Lua/src/lrotable.c **** 
  37:/home/stero141/Projects/MicrocontrollersProjects/opentx-release-2.3.15/radio/src/thirdparty/Lua/src/lrotable.c **** 
  38:/home/stero141/Projects/MicrocontrollersProjects/opentx-release-2.3.15/radio/src/thirdparty/Lua/src/lrotable.c **** /* Find a global "read only table" in the constant lua_rotable array */
  39:/home/stero141/Projects/MicrocontrollersProjects/opentx-release-2.3.15/radio/src/thirdparty/Lua/src/lrotable.c **** luaR_result luaR_findglobal(const char * name, TValue * val) {
  40:/home/stero141/Projects/MicrocontrollersProjects/opentx-release-2.3.15/radio/src/thirdparty/Lua/src/lrotable.c ****   unsigned i;
  41:/home/stero141/Projects/MicrocontrollersProjects/opentx-release-2.3.15/radio/src/thirdparty/Lua/src/lrotable.c ****   if (strlen(name) > LUA_MAX_ROTABLE_NAME) {
  42:/home/stero141/Projects/MicrocontrollersProjects/opentx-release-2.3.15/radio/src/thirdparty/Lua/src/lrotable.c ****     TRACE_LUA_INTERNALS("luaR_findglobal('%s') = NAME TOO LONG", name);
  43:/home/stero141/Projects/MicrocontrollersProjects/opentx-release-2.3.15/radio/src/thirdparty/Lua/src/lrotable.c ****     return 0;
  44:/home/stero141/Projects/MicrocontrollersProjects/opentx-release-2.3.15/radio/src/thirdparty/Lua/src/lrotable.c ****   }
  45:/home/stero141/Projects/MicrocontrollersProjects/opentx-release-2.3.15/radio/src/thirdparty/Lua/src/lrotable.c ****   for (i=0; lua_rotable[i].name; i++) {
  46:/home/stero141/Projects/MicrocontrollersProjects/opentx-release-2.3.15/radio/src/thirdparty/Lua/src/lrotable.c ****     void * table = (void *)(&lua_rotable[i]);
  47:/home/stero141/Projects/MicrocontrollersProjects/opentx-release-2.3.15/radio/src/thirdparty/Lua/src/lrotable.c ****     if (!strcmp(lua_rotable[i].name, name)) {
  48:/home/stero141/Projects/MicrocontrollersProjects/opentx-release-2.3.15/radio/src/thirdparty/Lua/src/lrotable.c ****       setrvalue(val, table);
  49:/home/stero141/Projects/MicrocontrollersProjects/opentx-release-2.3.15/radio/src/thirdparty/Lua/src/lrotable.c ****       TRACE_LUA_INTERNALS("luaR_findglobal('%s') = TABLE %p (%s)", name, table, lua_rotable[i].name
  50:/home/stero141/Projects/MicrocontrollersProjects/opentx-release-2.3.15/radio/src/thirdparty/Lua/src/lrotable.c ****       return 1;
  51:/home/stero141/Projects/MicrocontrollersProjects/opentx-release-2.3.15/radio/src/thirdparty/Lua/src/lrotable.c ****     }
  52:/home/stero141/Projects/MicrocontrollersProjects/opentx-release-2.3.15/radio/src/thirdparty/Lua/src/lrotable.c ****     if (!strncmp(lua_rotable[i].name, "__", 2)) {
  53:/home/stero141/Projects/MicrocontrollersProjects/opentx-release-2.3.15/radio/src/thirdparty/Lua/src/lrotable.c ****       if (luaR_findentry(table, name, val)) {
  54:/home/stero141/Projects/MicrocontrollersProjects/opentx-release-2.3.15/radio/src/thirdparty/Lua/src/lrotable.c ****         TRACE_LUA_INTERNALS("luaR_findglobal('%s') = FOUND in table '%s'", name, lua_rotable[i].nam
  55:/home/stero141/Projects/MicrocontrollersProjects/opentx-release-2.3.15/radio/src/thirdparty/Lua/src/lrotable.c ****         return 1;
  56:/home/stero141/Projects/MicrocontrollersProjects/opentx-release-2.3.15/radio/src/thirdparty/Lua/src/lrotable.c ****       }
  57:/home/stero141/Projects/MicrocontrollersProjects/opentx-release-2.3.15/radio/src/thirdparty/Lua/src/lrotable.c ****     }
  58:/home/stero141/Projects/MicrocontrollersProjects/opentx-release-2.3.15/radio/src/thirdparty/Lua/src/lrotable.c ****   }
  59:/home/stero141/Projects/MicrocontrollersProjects/opentx-release-2.3.15/radio/src/thirdparty/Lua/src/lrotable.c ****   TRACE_LUA_INTERNALS("luaR_findglobal() '%s' = NOT FOUND", name);
  60:/home/stero141/Projects/MicrocontrollersProjects/opentx-release-2.3.15/radio/src/thirdparty/Lua/src/lrotable.c ****   return 0;
  61:/home/stero141/Projects/MicrocontrollersProjects/opentx-release-2.3.15/radio/src/thirdparty/Lua/src/lrotable.c **** }
  62:/home/stero141/Projects/MicrocontrollersProjects/opentx-release-2.3.15/radio/src/thirdparty/Lua/src/lrotable.c **** 
  63:/home/stero141/Projects/MicrocontrollersProjects/opentx-release-2.3.15/radio/src/thirdparty/Lua/src/lrotable.c **** 
  64:/home/stero141/Projects/MicrocontrollersProjects/opentx-release-2.3.15/radio/src/thirdparty/Lua/src/lrotable.c **** luaR_result luaR_findentry(void *data, const char * key, TValue * val) {
  35              		.loc 1 64 72 view -0
  36              		.cfi_startproc
  37              		@ args = 0, pretend = 0, frame = 0
  38              		@ frame_needed = 0, uses_anonymous_args = 0
  65:/home/stero141/Projects/MicrocontrollersProjects/opentx-release-2.3.15/radio/src/thirdparty/Lua/src/lrotable.c ****   luaR_table * table = (luaR_table *)data;
  39              		.loc 1 65 3 view .LVU1
  66:/home/stero141/Projects/MicrocontrollersProjects/opentx-release-2.3.15/radio/src/thirdparty/Lua/src/lrotable.c ****   /* First look at the functions */
  67:/home/stero141/Projects/MicrocontrollersProjects/opentx-release-2.3.15/radio/src/thirdparty/Lua/src/lrotable.c ****   if (luaR_findkey(table->pfuncs, key, LUAR_FINDFUNCTION, val)) {
  40              		.loc 1 67 3 view .LVU2
  41              	@ /home/stero141/Projects/MicrocontrollersProjects/opentx-release-2.3.15/radio/src/thirdparty/Lua/s
  64:/home/stero141/Projects/MicrocontrollersProjects/opentx-release-2.3.15/radio/src/thirdparty/Lua/src/lrotable.c ****   luaR_table * table = (luaR_table *)data;
  42              		.loc 1 64 72 is_stmt 0 view .LVU3
  43 0000 F8B5     		push	{r3, r4, r5, r6, r7, lr}	@
  44              	.LCFI0:
  45              		.cfi_def_cfa_offset 24
  46              		.cfi_offset 3, -24
ARM GAS  /tmp/cc7hh7FW.s 			page 3


  47              		.cfi_offset 4, -20
  48              		.cfi_offset 5, -16
  49              		.cfi_offset 6, -12
  50              		.cfi_offset 7, -8
  51              		.cfi_offset 14, -4
  52              	@ /home/stero141/Projects/MicrocontrollersProjects/opentx-release-2.3.15/radio/src/thirdparty/Lua/s
  53              		.loc 1 67 25 view .LVU4
  54 0002 4468     		ldr	r4, [r0, #4]	@ pf, MEM[(struct luaR_table *)data_7(D)].pfuncs
  55              	.LVL1:
  56              	@ /home/stero141/Projects/MicrocontrollersProjects/opentx-release-2.3.15/radio/src/thirdparty/Lua/s
  64:/home/stero141/Projects/MicrocontrollersProjects/opentx-release-2.3.15/radio/src/thirdparty/Lua/src/lrotable.c ****   luaR_table * table = (luaR_table *)data;
  57              		.loc 1 64 72 view .LVU5
  58 0004 0746     		mov	r7, r0	@ data, tmp134
  59 0006 0E46     		mov	r6, r1	@ key, tmp135
  60              	.LVL2:
  64:/home/stero141/Projects/MicrocontrollersProjects/opentx-release-2.3.15/radio/src/thirdparty/Lua/src/lrotable.c ****   luaR_table * table = (luaR_table *)data;
  61              		.loc 1 64 72 view .LVU6
  62 0008 1546     		mov	r5, r2	@ val, tmp136
  63              	.LVL3:
  64              	.LBB16:
  65              	.LBI16:
  13:/home/stero141/Projects/MicrocontrollersProjects/opentx-release-2.3.15/radio/src/thirdparty/Lua/src/lrotable.c ****   const char *pname;
  66              		.loc 1 13 20 is_stmt 1 view .LVU7
  67              	.LBB17:
  14:/home/stero141/Projects/MicrocontrollersProjects/opentx-release-2.3.15/radio/src/thirdparty/Lua/src/lrotable.c ****   const luaL_Reg *pf = (luaL_Reg*)where;
  68              		.loc 1 14 3 view .LVU8
  15:/home/stero141/Projects/MicrocontrollersProjects/opentx-release-2.3.15/radio/src/thirdparty/Lua/src/lrotable.c ****   const luaR_value_entry *pv = (luaR_value_entry*)where;
  69              		.loc 1 15 3 view .LVU9
  16:/home/stero141/Projects/MicrocontrollersProjects/opentx-release-2.3.15/radio/src/thirdparty/Lua/src/lrotable.c ****   int isfunction = type == LUAR_FINDFUNCTION;
  70              		.loc 1 16 3 view .LVU10
  17:/home/stero141/Projects/MicrocontrollersProjects/opentx-release-2.3.15/radio/src/thirdparty/Lua/src/lrotable.c ****   if(!where)
  71              		.loc 1 17 3 view .LVU11
  18:/home/stero141/Projects/MicrocontrollersProjects/opentx-release-2.3.15/radio/src/thirdparty/Lua/src/lrotable.c ****     return 0;
  72              		.loc 1 18 3 view .LVU12
  73              	@ /home/stero141/Projects/MicrocontrollersProjects/opentx-release-2.3.15/radio/src/thirdparty/Lua/s
  18:/home/stero141/Projects/MicrocontrollersProjects/opentx-release-2.3.15/radio/src/thirdparty/Lua/src/lrotable.c ****     return 0;
  74              		.loc 1 18 5 is_stmt 0 view .LVU13
  75 000a 6CB1     		cbz	r4, .L2	@ pf,
  76              	.LVL4:
  77              	.L5:
  78              	.LBB18:
  79              	.LBB19:
  20:/home/stero141/Projects/MicrocontrollersProjects/opentx-release-2.3.15/radio/src/thirdparty/Lua/src/lrotable.c ****     if (!(pname = isfunction ? pf->name : pv->name))
  80              		.loc 1 20 3 is_stmt 1 view .LVU14
  21:/home/stero141/Projects/MicrocontrollersProjects/opentx-release-2.3.15/radio/src/thirdparty/Lua/src/lrotable.c ****       break;
  81              		.loc 1 21 5 view .LVU15
  82              	@ /home/stero141/Projects/MicrocontrollersProjects/opentx-release-2.3.15/radio/src/thirdparty/Lua/s
  21:/home/stero141/Projects/MicrocontrollersProjects/opentx-release-2.3.15/radio/src/thirdparty/Lua/src/lrotable.c ****       break;
  83              		.loc 1 21 41 is_stmt 0 discriminator 1 view .LVU16
  84 000c 2068     		ldr	r0, [r4]	@ iftmp.0_19, MEM[(const char * *)pf_18]
  85              	.LVL5:
  86              	@ /home/stero141/Projects/MicrocontrollersProjects/opentx-release-2.3.15/radio/src/thirdparty/Lua/s
  21:/home/stero141/Projects/MicrocontrollersProjects/opentx-release-2.3.15/radio/src/thirdparty/Lua/src/lrotable.c ****       break;
  87              		.loc 1 21 8 discriminator 4 view .LVU17
  88 000e 58B1     		cbz	r0, .L2	@ iftmp.0_19,
  23:/home/stero141/Projects/MicrocontrollersProjects/opentx-release-2.3.15/radio/src/thirdparty/Lua/src/lrotable.c ****       if (isfunction) {
  89              		.loc 1 23 5 is_stmt 1 view .LVU18
ARM GAS  /tmp/cc7hh7FW.s 			page 4


  90              	@ /home/stero141/Projects/MicrocontrollersProjects/opentx-release-2.3.15/radio/src/thirdparty/Lua/s
  23:/home/stero141/Projects/MicrocontrollersProjects/opentx-release-2.3.15/radio/src/thirdparty/Lua/src/lrotable.c ****       if (isfunction) {
  91              		.loc 1 23 10 is_stmt 0 view .LVU19
  92 0010 3146     		mov	r1, r6	@, key
  93 0012 FFF7FEFF 		bl	strcmp		@
  94              	.LVL6:
  95              	@ /home/stero141/Projects/MicrocontrollersProjects/opentx-release-2.3.15/radio/src/thirdparty/Lua/s
  23:/home/stero141/Projects/MicrocontrollersProjects/opentx-release-2.3.15/radio/src/thirdparty/Lua/src/lrotable.c ****       if (isfunction) {
  96              		.loc 1 23 8 discriminator 1 view .LVU20
  97 0016 28B9     		cbnz	r0, .L3	@ tmp137,
  24:/home/stero141/Projects/MicrocontrollersProjects/opentx-release-2.3.15/radio/src/thirdparty/Lua/src/lrotable.c ****         setlfvalue(found, pf->func);
  98              		.loc 1 24 7 is_stmt 1 view .LVU21
  99              	.LBB20:
  25:/home/stero141/Projects/MicrocontrollersProjects/opentx-release-2.3.15/radio/src/thirdparty/Lua/src/lrotable.c ****       }
 100              		.loc 1 25 9 view .LVU22
 101              	.LVL7:
  25:/home/stero141/Projects/MicrocontrollersProjects/opentx-release-2.3.15/radio/src/thirdparty/Lua/src/lrotable.c ****       }
 102              		.loc 1 25 9 view .LVU23
 103 0018 6368     		ldr	r3, [r4, #4]	@ pf_18->func, pf_18->func
 104 001a 2B60     		str	r3, [r5]	@ unaligned	@ pf_18->func, val_10(D)->value_.p
  25:/home/stero141/Projects/MicrocontrollersProjects/opentx-release-2.3.15/radio/src/thirdparty/Lua/src/lrotable.c ****       }
 105              		.loc 1 25 9 view .LVU24
 106              	.LBE20:
  25:/home/stero141/Projects/MicrocontrollersProjects/opentx-release-2.3.15/radio/src/thirdparty/Lua/src/lrotable.c ****       }
 107              		.loc 1 25 36 view .LVU25
  28:/home/stero141/Projects/MicrocontrollersProjects/opentx-release-2.3.15/radio/src/thirdparty/Lua/src/lrotable.c ****       }
 108              		.loc 1 28 36 discriminator 1 view .LVU26
  30:/home/stero141/Projects/MicrocontrollersProjects/opentx-release-2.3.15/radio/src/thirdparty/Lua/src/lrotable.c ****     }
 109              		.loc 1 30 7 view .LVU27
 110              	.LVL8:
 111              	.LBB21:
 112              	@ /home/stero141/Projects/MicrocontrollersProjects/opentx-release-2.3.15/radio/src/thirdparty/Lua/s
  25:/home/stero141/Projects/MicrocontrollersProjects/opentx-release-2.3.15/radio/src/thirdparty/Lua/src/lrotable.c ****       }
 113              		.loc 1 25 9 is_stmt 0 view .LVU28
 114 001c 0323     		movs	r3, #3	@ _47,
 115              	.LVL9:
 116              	.L4:
  25:/home/stero141/Projects/MicrocontrollersProjects/opentx-release-2.3.15/radio/src/thirdparty/Lua/src/lrotable.c ****       }
 117              		.loc 1 25 9 view .LVU29
 118              	.LBE21:
 119              	.LBE19:
 120              	.LBE18:
 121              	.LBE17:
 122              	.LBE16:
 123              	.LBB25:
 124              	.LBB26:
 125              	.LBB27:
 126              	.LBB28:
 127              	.LBB29:
 128              	@ /home/stero141/Projects/MicrocontrollersProjects/opentx-release-2.3.15/radio/src/thirdparty/Lua/s
  28:/home/stero141/Projects/MicrocontrollersProjects/opentx-release-2.3.15/radio/src/thirdparty/Lua/src/lrotable.c ****       }
 129              		.loc 1 28 9 view .LVU30
 130 001e 2B72     		strb	r3, [r5, #8]	@ _47, val_10(D)->tt_
 131              	.LBE29:
 132              	.LBE28:
 133              	.LBE27:
 134              	.LBE26:
ARM GAS  /tmp/cc7hh7FW.s 			page 5


 135              	.LBE25:
 136              	@ /home/stero141/Projects/MicrocontrollersProjects/opentx-release-2.3.15/radio/src/thirdparty/Lua/s
  68:/home/stero141/Projects/MicrocontrollersProjects/opentx-release-2.3.15/radio/src/thirdparty/Lua/src/lrotable.c ****     TRACE_LUA_INTERNALS("luaR_findentry(%p[%s], '%s') = FUNCTION %p", table, table->name, key, lfva
  69:/home/stero141/Projects/MicrocontrollersProjects/opentx-release-2.3.15/radio/src/thirdparty/Lua/src/lrotable.c ****     return 1;
 137              		.loc 1 69 12 view .LVU31
 138 0020 0120     		movs	r0, #1	@ <retval>,
 139              	.L6:
 140              	@ /home/stero141/Projects/MicrocontrollersProjects/opentx-release-2.3.15/radio/src/thirdparty/Lua/s
  70:/home/stero141/Projects/MicrocontrollersProjects/opentx-release-2.3.15/radio/src/thirdparty/Lua/src/lrotable.c ****   }
  71:/home/stero141/Projects/MicrocontrollersProjects/opentx-release-2.3.15/radio/src/thirdparty/Lua/src/lrotable.c ****   else if (luaR_findkey(table->pvalues, key, LUAR_FINDVALUE, val)) {
  72:/home/stero141/Projects/MicrocontrollersProjects/opentx-release-2.3.15/radio/src/thirdparty/Lua/src/lrotable.c ****     /* Then at the values */
  73:/home/stero141/Projects/MicrocontrollersProjects/opentx-release-2.3.15/radio/src/thirdparty/Lua/src/lrotable.c ****     TRACE_LUA_INTERNALS("luaR_findentry(%p[%s], '%s') = NUMBER %g", table, table->name, key, nvalue
  74:/home/stero141/Projects/MicrocontrollersProjects/opentx-release-2.3.15/radio/src/thirdparty/Lua/src/lrotable.c ****     return 1;
  75:/home/stero141/Projects/MicrocontrollersProjects/opentx-release-2.3.15/radio/src/thirdparty/Lua/src/lrotable.c ****   }
  76:/home/stero141/Projects/MicrocontrollersProjects/opentx-release-2.3.15/radio/src/thirdparty/Lua/src/lrotable.c ****   TRACE_LUA_INTERNALS("luaR_findentry(%p[%s], '%s') = NOT FOUND", table, table->name, key);
  77:/home/stero141/Projects/MicrocontrollersProjects/opentx-release-2.3.15/radio/src/thirdparty/Lua/src/lrotable.c ****   return 0;
  78:/home/stero141/Projects/MicrocontrollersProjects/opentx-release-2.3.15/radio/src/thirdparty/Lua/src/lrotable.c **** }
 141              		.loc 1 78 1 view .LVU32
 142 0022 F8BD     		pop	{r3, r4, r5, r6, r7, pc}	@
 143              	.LVL10:
 144              	.L3:
 145              	.LBB35:
 146              	.LBB24:
 147              	.LBB23:
 148              	.LBB22:
  32:/home/stero141/Projects/MicrocontrollersProjects/opentx-release-2.3.15/radio/src/thirdparty/Lua/src/lrotable.c ****   }
 149              		.loc 1 32 5 is_stmt 1 view .LVU33
 150              	@ /home/stero141/Projects/MicrocontrollersProjects/opentx-release-2.3.15/radio/src/thirdparty/Lua/s
  32:/home/stero141/Projects/MicrocontrollersProjects/opentx-release-2.3.15/radio/src/thirdparty/Lua/src/lrotable.c ****   }
 151              		.loc 1 32 8 is_stmt 0 view .LVU34
 152 0024 0834     		adds	r4, r4, #8	@ pf, pf,
 153              	.LVL11:
  32:/home/stero141/Projects/MicrocontrollersProjects/opentx-release-2.3.15/radio/src/thirdparty/Lua/src/lrotable.c ****   }
 154              		.loc 1 32 12 is_stmt 1 view .LVU35
  20:/home/stero141/Projects/MicrocontrollersProjects/opentx-release-2.3.15/radio/src/thirdparty/Lua/src/lrotable.c ****     if (!(pname = isfunction ? pf->name : pv->name))
 155              		.loc 1 20 8 view .LVU36
 156              	@ /home/stero141/Projects/MicrocontrollersProjects/opentx-release-2.3.15/radio/src/thirdparty/Lua/s
  21:/home/stero141/Projects/MicrocontrollersProjects/opentx-release-2.3.15/radio/src/thirdparty/Lua/src/lrotable.c ****       break;
 157              		.loc 1 21 8 is_stmt 0 view .LVU37
 158 0026 F1E7     		b	.L5		@
 159              	.LVL12:
 160              	.L2:
  21:/home/stero141/Projects/MicrocontrollersProjects/opentx-release-2.3.15/radio/src/thirdparty/Lua/src/lrotable.c ****       break;
 161              		.loc 1 21 8 view .LVU38
 162              	.LBE22:
 163              	.LBE23:
 164              	.LBE24:
 165              	.LBE35:
  71:/home/stero141/Projects/MicrocontrollersProjects/opentx-release-2.3.15/radio/src/thirdparty/Lua/src/lrotable.c ****     /* Then at the values */
 166              		.loc 1 71 8 is_stmt 1 view .LVU39
 167              	@ /home/stero141/Projects/MicrocontrollersProjects/opentx-release-2.3.15/radio/src/thirdparty/Lua/s
  71:/home/stero141/Projects/MicrocontrollersProjects/opentx-release-2.3.15/radio/src/thirdparty/Lua/src/lrotable.c ****     /* Then at the values */
 168              		.loc 1 71 30 is_stmt 0 view .LVU40
 169 0028 BC68     		ldr	r4, [r7, #8]	@ pv, MEM[(struct luaR_table *)data_7(D)].pvalues
 170              	.LVL13:
 171              	.LBB36:
 172              	.LBI25:
ARM GAS  /tmp/cc7hh7FW.s 			page 6


  13:/home/stero141/Projects/MicrocontrollersProjects/opentx-release-2.3.15/radio/src/thirdparty/Lua/src/lrotable.c ****   const char *pname;
 173              		.loc 1 13 20 is_stmt 1 view .LVU41
 174              	.LBB34:
  14:/home/stero141/Projects/MicrocontrollersProjects/opentx-release-2.3.15/radio/src/thirdparty/Lua/src/lrotable.c ****   const luaL_Reg *pf = (luaL_Reg*)where;
 175              		.loc 1 14 3 view .LVU42
  15:/home/stero141/Projects/MicrocontrollersProjects/opentx-release-2.3.15/radio/src/thirdparty/Lua/src/lrotable.c ****   const luaR_value_entry *pv = (luaR_value_entry*)where;
 176              		.loc 1 15 3 view .LVU43
  16:/home/stero141/Projects/MicrocontrollersProjects/opentx-release-2.3.15/radio/src/thirdparty/Lua/src/lrotable.c ****   int isfunction = type == LUAR_FINDFUNCTION;
 177              		.loc 1 16 3 view .LVU44
  17:/home/stero141/Projects/MicrocontrollersProjects/opentx-release-2.3.15/radio/src/thirdparty/Lua/src/lrotable.c ****   if(!where)
 178              		.loc 1 17 3 view .LVU45
  18:/home/stero141/Projects/MicrocontrollersProjects/opentx-release-2.3.15/radio/src/thirdparty/Lua/src/lrotable.c ****     return 0;
 179              		.loc 1 18 3 view .LVU46
 180              	@ /home/stero141/Projects/MicrocontrollersProjects/opentx-release-2.3.15/radio/src/thirdparty/Lua/s
  18:/home/stero141/Projects/MicrocontrollersProjects/opentx-release-2.3.15/radio/src/thirdparty/Lua/src/lrotable.c ****     return 0;
 181              		.loc 1 18 5 is_stmt 0 view .LVU47
 182 002a 74B1     		cbz	r4, .L9	@ pv,
 183              	.LVL14:
 184              	.L8:
 185              	.LBB33:
 186              	.LBB32:
  20:/home/stero141/Projects/MicrocontrollersProjects/opentx-release-2.3.15/radio/src/thirdparty/Lua/src/lrotable.c ****     if (!(pname = isfunction ? pf->name : pv->name))
 187              		.loc 1 20 3 is_stmt 1 view .LVU48
  21:/home/stero141/Projects/MicrocontrollersProjects/opentx-release-2.3.15/radio/src/thirdparty/Lua/src/lrotable.c ****       break;
 188              		.loc 1 21 5 view .LVU49
 189              	@ /home/stero141/Projects/MicrocontrollersProjects/opentx-release-2.3.15/radio/src/thirdparty/Lua/s
  21:/home/stero141/Projects/MicrocontrollersProjects/opentx-release-2.3.15/radio/src/thirdparty/Lua/src/lrotable.c ****       break;
 190              		.loc 1 21 41 is_stmt 0 discriminator 2 view .LVU50
 191 002c 2068     		ldr	r0, [r4]	@ iftmp.0_36, MEM[(const char * *)pv_35]
 192              	.LVL15:
 193              	@ /home/stero141/Projects/MicrocontrollersProjects/opentx-release-2.3.15/radio/src/thirdparty/Lua/s
  21:/home/stero141/Projects/MicrocontrollersProjects/opentx-release-2.3.15/radio/src/thirdparty/Lua/src/lrotable.c ****       break;
 194              		.loc 1 21 8 discriminator 4 view .LVU51
 195 002e 0028     		cmp	r0, #0	@ iftmp.0_36
 196 0030 F7D0     		beq	.L6	@
  23:/home/stero141/Projects/MicrocontrollersProjects/opentx-release-2.3.15/radio/src/thirdparty/Lua/src/lrotable.c ****       if (isfunction) {
 197              		.loc 1 23 5 is_stmt 1 view .LVU52
 198              	@ /home/stero141/Projects/MicrocontrollersProjects/opentx-release-2.3.15/radio/src/thirdparty/Lua/s
  23:/home/stero141/Projects/MicrocontrollersProjects/opentx-release-2.3.15/radio/src/thirdparty/Lua/src/lrotable.c ****       if (isfunction) {
 199              		.loc 1 23 10 is_stmt 0 view .LVU53
 200 0032 3146     		mov	r1, r6	@, key
 201 0034 FFF7FEFF 		bl	strcmp		@
 202              	.LVL16:
 203              	@ /home/stero141/Projects/MicrocontrollersProjects/opentx-release-2.3.15/radio/src/thirdparty/Lua/s
  23:/home/stero141/Projects/MicrocontrollersProjects/opentx-release-2.3.15/radio/src/thirdparty/Lua/src/lrotable.c ****       if (isfunction) {
 204              		.loc 1 23 8 discriminator 1 view .LVU54
 205 0038 28B9     		cbnz	r0, .L7	@ tmp138,
  24:/home/stero141/Projects/MicrocontrollersProjects/opentx-release-2.3.15/radio/src/thirdparty/Lua/src/lrotable.c ****         setlfvalue(found, pf->func);
 206              		.loc 1 24 7 is_stmt 1 view .LVU55
 207              	.LBB30:
  28:/home/stero141/Projects/MicrocontrollersProjects/opentx-release-2.3.15/radio/src/thirdparty/Lua/src/lrotable.c ****       }
 208              		.loc 1 28 9 view .LVU56
 209              	.LVL17:
  28:/home/stero141/Projects/MicrocontrollersProjects/opentx-release-2.3.15/radio/src/thirdparty/Lua/src/lrotable.c ****       }
 210              		.loc 1 28 9 view .LVU57
 211 003a A368     		ldr	r3, [r4, #8]	@ pv_35->value, pv_35->value
 212 003c 2B60     		str	r3, [r5]	@ unaligned	@ pv_35->value, val_10(D)->value_.n
ARM GAS  /tmp/cc7hh7FW.s 			page 7


 213 003e E368     		ldr	r3, [r4, #12]	@ pv_35->value, pv_35->value
 214 0040 6B60     		str	r3, [r5, #4]	@ unaligned	@ pv_35->value, val_10(D)->value_.n
  28:/home/stero141/Projects/MicrocontrollersProjects/opentx-release-2.3.15/radio/src/thirdparty/Lua/src/lrotable.c ****       }
 215              		.loc 1 28 9 view .LVU58
 216              	.LBE30:
  28:/home/stero141/Projects/MicrocontrollersProjects/opentx-release-2.3.15/radio/src/thirdparty/Lua/src/lrotable.c ****       }
 217              		.loc 1 28 36 discriminator 1 view .LVU59
  30:/home/stero141/Projects/MicrocontrollersProjects/opentx-release-2.3.15/radio/src/thirdparty/Lua/src/lrotable.c ****     }
 218              		.loc 1 30 7 view .LVU60
 219              	.LVL18:
 220              	.LBB31:
 221              	@ /home/stero141/Projects/MicrocontrollersProjects/opentx-release-2.3.15/radio/src/thirdparty/Lua/s
  28:/home/stero141/Projects/MicrocontrollersProjects/opentx-release-2.3.15/radio/src/thirdparty/Lua/src/lrotable.c ****       }
 222              		.loc 1 28 9 is_stmt 0 view .LVU61
 223 0042 0523     		movs	r3, #5	@ _47,
 224 0044 EBE7     		b	.L4		@
 225              	.LVL19:
 226              	.L7:
  28:/home/stero141/Projects/MicrocontrollersProjects/opentx-release-2.3.15/radio/src/thirdparty/Lua/src/lrotable.c ****       }
 227              		.loc 1 28 9 view .LVU62
 228              	.LBE31:
  32:/home/stero141/Projects/MicrocontrollersProjects/opentx-release-2.3.15/radio/src/thirdparty/Lua/src/lrotable.c ****   }
 229              		.loc 1 32 5 is_stmt 1 view .LVU63
  32:/home/stero141/Projects/MicrocontrollersProjects/opentx-release-2.3.15/radio/src/thirdparty/Lua/src/lrotable.c ****   }
 230              		.loc 1 32 12 view .LVU64
 231              	@ /home/stero141/Projects/MicrocontrollersProjects/opentx-release-2.3.15/radio/src/thirdparty/Lua/s
  32:/home/stero141/Projects/MicrocontrollersProjects/opentx-release-2.3.15/radio/src/thirdparty/Lua/src/lrotable.c ****   }
 232              		.loc 1 32 15 is_stmt 0 view .LVU65
 233 0046 1034     		adds	r4, r4, #16	@ pv, pv,
 234              	.LVL20:
  20:/home/stero141/Projects/MicrocontrollersProjects/opentx-release-2.3.15/radio/src/thirdparty/Lua/src/lrotable.c ****     if (!(pname = isfunction ? pf->name : pv->name))
 235              		.loc 1 20 8 is_stmt 1 view .LVU66
 236              	@ /home/stero141/Projects/MicrocontrollersProjects/opentx-release-2.3.15/radio/src/thirdparty/Lua/s
  21:/home/stero141/Projects/MicrocontrollersProjects/opentx-release-2.3.15/radio/src/thirdparty/Lua/src/lrotable.c ****       break;
 237              		.loc 1 21 8 is_stmt 0 view .LVU67
 238 0048 F0E7     		b	.L8		@
 239              	.LVL21:
 240              	.L9:
  21:/home/stero141/Projects/MicrocontrollersProjects/opentx-release-2.3.15/radio/src/thirdparty/Lua/src/lrotable.c ****       break;
 241              		.loc 1 21 8 view .LVU68
 242              	.LBE32:
 243              	.LBE33:
 244              	.LBE34:
 245              	.LBE36:
 246              	@ /home/stero141/Projects/MicrocontrollersProjects/opentx-release-2.3.15/radio/src/thirdparty/Lua/s
  77:/home/stero141/Projects/MicrocontrollersProjects/opentx-release-2.3.15/radio/src/thirdparty/Lua/src/lrotable.c **** }
 247              		.loc 1 77 10 view .LVU69
 248 004a 2046     		mov	r0, r4	@ <retval>, pv
 249 004c E9E7     		b	.L6		@
 250              		.cfi_endproc
 251              	.LFE12:
 252              		.size	luaR_findentry, .-luaR_findentry
 253              		.section	.rodata.luaR_findglobal.str1.1,"aMS",%progbits,1
 254              	.LC0:
 255 0000 5F5F00   		.ascii	"__\000"
 256              		.section	.text.luaR_findglobal,"ax",%progbits
 257              		.align	1
ARM GAS  /tmp/cc7hh7FW.s 			page 8


 258              		.global	luaR_findglobal
 259              		.syntax unified
 260              		.thumb
 261              		.thumb_func
 262              		.type	luaR_findglobal, %function
 263              	luaR_findglobal:
 264              	.LVL22:
 265              	.LFB11:
  39:/home/stero141/Projects/MicrocontrollersProjects/opentx-release-2.3.15/radio/src/thirdparty/Lua/src/lrotable.c ****   unsigned i;
 266              		.loc 1 39 62 is_stmt 1 view -0
 267              		.cfi_startproc
 268              		@ args = 0, pretend = 0, frame = 0
 269              		@ frame_needed = 0, uses_anonymous_args = 0
  40:/home/stero141/Projects/MicrocontrollersProjects/opentx-release-2.3.15/radio/src/thirdparty/Lua/src/lrotable.c ****   if (strlen(name) > LUA_MAX_ROTABLE_NAME) {
 270              		.loc 1 40 3 view .LVU71
  41:/home/stero141/Projects/MicrocontrollersProjects/opentx-release-2.3.15/radio/src/thirdparty/Lua/src/lrotable.c ****     TRACE_LUA_INTERNALS("luaR_findglobal('%s') = NAME TOO LONG", name);
 271              		.loc 1 41 3 view .LVU72
 272              	@ /home/stero141/Projects/MicrocontrollersProjects/opentx-release-2.3.15/radio/src/thirdparty/Lua/s
  39:/home/stero141/Projects/MicrocontrollersProjects/opentx-release-2.3.15/radio/src/thirdparty/Lua/src/lrotable.c ****   unsigned i;
 273              		.loc 1 39 62 is_stmt 0 view .LVU73
 274 0000 F8B5     		push	{r3, r4, r5, r6, r7, lr}	@
 275              	.LCFI1:
 276              		.cfi_def_cfa_offset 24
 277              		.cfi_offset 3, -24
 278              		.cfi_offset 4, -20
 279              		.cfi_offset 5, -16
 280              		.cfi_offset 6, -12
 281              		.cfi_offset 7, -8
 282              		.cfi_offset 14, -4
 283              	@ /home/stero141/Projects/MicrocontrollersProjects/opentx-release-2.3.15/radio/src/thirdparty/Lua/s
  39:/home/stero141/Projects/MicrocontrollersProjects/opentx-release-2.3.15/radio/src/thirdparty/Lua/src/lrotable.c ****   unsigned i;
 284              		.loc 1 39 62 view .LVU74
 285 0002 0646     		mov	r6, r0	@ name, tmp134
 286 0004 0D46     		mov	r5, r1	@ val, tmp135
 287              	@ /home/stero141/Projects/MicrocontrollersProjects/opentx-release-2.3.15/radio/src/thirdparty/Lua/s
  41:/home/stero141/Projects/MicrocontrollersProjects/opentx-release-2.3.15/radio/src/thirdparty/Lua/src/lrotable.c ****     TRACE_LUA_INTERNALS("luaR_findglobal('%s') = NAME TOO LONG", name);
 288              		.loc 1 41 7 view .LVU75
 289 0006 FFF7FEFF 		bl	strlen		@
 290              	.LVL23:
 291              	@ /home/stero141/Projects/MicrocontrollersProjects/opentx-release-2.3.15/radio/src/thirdparty/Lua/s
  41:/home/stero141/Projects/MicrocontrollersProjects/opentx-release-2.3.15/radio/src/thirdparty/Lua/src/lrotable.c ****     TRACE_LUA_INTERNALS("luaR_findglobal('%s') = NAME TOO LONG", name);
 292              		.loc 1 41 6 discriminator 1 view .LVU76
 293 000a 2028     		cmp	r0, #32	@ tmp136,
 294 000c 02D8     		bhi	.L18		@,
 295 000e 0F4C     		ldr	r4, .L26	@ ivtmp.32,
 296              	.L19:
  45:/home/stero141/Projects/MicrocontrollersProjects/opentx-release-2.3.15/radio/src/thirdparty/Lua/src/lrotable.c ****     void * table = (void *)(&lua_rotable[i]);
 297              		.loc 1 45 13 is_stmt 1 discriminator 1 view .LVU77
 298              	@ /home/stero141/Projects/MicrocontrollersProjects/opentx-release-2.3.15/radio/src/thirdparty/Lua/s
  45:/home/stero141/Projects/MicrocontrollersProjects/opentx-release-2.3.15/radio/src/thirdparty/Lua/src/lrotable.c ****     void * table = (void *)(&lua_rotable[i]);
 299              		.loc 1 45 27 is_stmt 0 discriminator 1 view .LVU78
 300 0010 2768     		ldr	r7, [r4]	@ _5, MEM[(const char * *)_26]
 301              	@ /home/stero141/Projects/MicrocontrollersProjects/opentx-release-2.3.15/radio/src/thirdparty/Lua/s
  45:/home/stero141/Projects/MicrocontrollersProjects/opentx-release-2.3.15/radio/src/thirdparty/Lua/src/lrotable.c ****     void * table = (void *)(&lua_rotable[i]);
 302              		.loc 1 45 13 discriminator 1 view .LVU79
 303 0012 0FB9     		cbnz	r7, .L25	@ _5,
 304              	.L18:
ARM GAS  /tmp/cc7hh7FW.s 			page 9


 305              	@ /home/stero141/Projects/MicrocontrollersProjects/opentx-release-2.3.15/radio/src/thirdparty/Lua/s
  43:/home/stero141/Projects/MicrocontrollersProjects/opentx-release-2.3.15/radio/src/thirdparty/Lua/src/lrotable.c ****   }
 306              		.loc 1 43 12 view .LVU80
 307 0014 0020     		movs	r0, #0	@ <retval>,
 308              	.L20:
 309              	@ /home/stero141/Projects/MicrocontrollersProjects/opentx-release-2.3.15/radio/src/thirdparty/Lua/s
  61:/home/stero141/Projects/MicrocontrollersProjects/opentx-release-2.3.15/radio/src/thirdparty/Lua/src/lrotable.c **** 
 310              		.loc 1 61 1 view .LVU81
 311 0016 F8BD     		pop	{r3, r4, r5, r6, r7, pc}	@
 312              	.LVL24:
 313              	.L25:
 314              	.LBB37:
  46:/home/stero141/Projects/MicrocontrollersProjects/opentx-release-2.3.15/radio/src/thirdparty/Lua/src/lrotable.c ****     if (!strcmp(lua_rotable[i].name, name)) {
 315              		.loc 1 46 5 is_stmt 1 view .LVU82
  47:/home/stero141/Projects/MicrocontrollersProjects/opentx-release-2.3.15/radio/src/thirdparty/Lua/src/lrotable.c ****       setrvalue(val, table);
 316              		.loc 1 47 5 view .LVU83
 317              	@ /home/stero141/Projects/MicrocontrollersProjects/opentx-release-2.3.15/radio/src/thirdparty/Lua/s
  47:/home/stero141/Projects/MicrocontrollersProjects/opentx-release-2.3.15/radio/src/thirdparty/Lua/src/lrotable.c ****       setrvalue(val, table);
 318              		.loc 1 47 10 is_stmt 0 view .LVU84
 319 0018 3146     		mov	r1, r6	@, name
 320 001a 3846     		mov	r0, r7	@, _5
 321 001c FFF7FEFF 		bl	strcmp		@
 322              	.LVL25:
 323              	@ /home/stero141/Projects/MicrocontrollersProjects/opentx-release-2.3.15/radio/src/thirdparty/Lua/s
  47:/home/stero141/Projects/MicrocontrollersProjects/opentx-release-2.3.15/radio/src/thirdparty/Lua/src/lrotable.c ****       setrvalue(val, table);
 324              		.loc 1 47 8 discriminator 1 view .LVU85
 325 0020 20B9     		cbnz	r0, .L21	@ tmp137,
 326              	.LBB38:
  48:/home/stero141/Projects/MicrocontrollersProjects/opentx-release-2.3.15/radio/src/thirdparty/Lua/src/lrotable.c ****       TRACE_LUA_INTERNALS("luaR_findglobal('%s') = TABLE %p (%s)", name, table, lua_rotable[i].name
 327              		.loc 1 48 7 is_stmt 1 view .LVU86
 328              	.LVL26:
  48:/home/stero141/Projects/MicrocontrollersProjects/opentx-release-2.3.15/radio/src/thirdparty/Lua/src/lrotable.c ****       TRACE_LUA_INTERNALS("luaR_findglobal('%s') = TABLE %p (%s)", name, table, lua_rotable[i].name
 329              		.loc 1 48 7 view .LVU87
 330 0022 0223     		movs	r3, #2	@ tmp126,
 331 0024 2C60     		str	r4, [r5]	@ unaligned	@ ivtmp.32, val_14(D)->value_.p
  48:/home/stero141/Projects/MicrocontrollersProjects/opentx-release-2.3.15/radio/src/thirdparty/Lua/src/lrotable.c ****       TRACE_LUA_INTERNALS("luaR_findglobal('%s') = TABLE %p (%s)", name, table, lua_rotable[i].name
 332              		.loc 1 48 7 view .LVU88
 333 0026 2B72     		strb	r3, [r5, #8]	@ tmp126, val_14(D)->tt_
 334              	.LBE38:
  48:/home/stero141/Projects/MicrocontrollersProjects/opentx-release-2.3.15/radio/src/thirdparty/Lua/src/lrotable.c ****       TRACE_LUA_INTERNALS("luaR_findglobal('%s') = TABLE %p (%s)", name, table, lua_rotable[i].name
 335              		.loc 1 48 28 view .LVU89
  49:/home/stero141/Projects/MicrocontrollersProjects/opentx-release-2.3.15/radio/src/thirdparty/Lua/src/lrotable.c ****       return 1;
 336              		.loc 1 49 101 view .LVU90
  50:/home/stero141/Projects/MicrocontrollersProjects/opentx-release-2.3.15/radio/src/thirdparty/Lua/src/lrotable.c ****     }
 337              		.loc 1 50 7 view .LVU91
 338              	.LVL27:
 339              	.L22:
 340              	@ /home/stero141/Projects/MicrocontrollersProjects/opentx-release-2.3.15/radio/src/thirdparty/Lua/s
  50:/home/stero141/Projects/MicrocontrollersProjects/opentx-release-2.3.15/radio/src/thirdparty/Lua/src/lrotable.c ****     }
 341              		.loc 1 50 14 is_stmt 0 view .LVU92
 342 0028 0120     		movs	r0, #1	@ <retval>,
 343 002a F4E7     		b	.L20		@
 344              	.L21:
  52:/home/stero141/Projects/MicrocontrollersProjects/opentx-release-2.3.15/radio/src/thirdparty/Lua/src/lrotable.c ****       if (luaR_findentry(table, name, val)) {
 345              		.loc 1 52 5 is_stmt 1 view .LVU93
 346              	@ /home/stero141/Projects/MicrocontrollersProjects/opentx-release-2.3.15/radio/src/thirdparty/Lua/s
  52:/home/stero141/Projects/MicrocontrollersProjects/opentx-release-2.3.15/radio/src/thirdparty/Lua/src/lrotable.c ****       if (luaR_findentry(table, name, val)) {
ARM GAS  /tmp/cc7hh7FW.s 			page 10


 347              		.loc 1 52 10 is_stmt 0 view .LVU94
 348 002c 0849     		ldr	r1, .L26+4	@,
 349 002e 0222     		movs	r2, #2	@,
 350 0030 3846     		mov	r0, r7	@, _5
 351 0032 FFF7FEFF 		bl	strncmp		@
 352              	.LVL28:
 353              	@ /home/stero141/Projects/MicrocontrollersProjects/opentx-release-2.3.15/radio/src/thirdparty/Lua/s
  52:/home/stero141/Projects/MicrocontrollersProjects/opentx-release-2.3.15/radio/src/thirdparty/Lua/src/lrotable.c ****       if (luaR_findentry(table, name, val)) {
 354              		.loc 1 52 8 discriminator 1 view .LVU95
 355 0036 08B1     		cbz	r0, .L23	@ tmp138,
 356              	.L24:
  52:/home/stero141/Projects/MicrocontrollersProjects/opentx-release-2.3.15/radio/src/thirdparty/Lua/src/lrotable.c ****       if (luaR_findentry(table, name, val)) {
 357              		.loc 1 52 8 discriminator 1 view .LVU96
 358              	.LBE37:
  45:/home/stero141/Projects/MicrocontrollersProjects/opentx-release-2.3.15/radio/src/thirdparty/Lua/src/lrotable.c ****     void * table = (void *)(&lua_rotable[i]);
 359              		.loc 1 45 35 is_stmt 1 discriminator 2 view .LVU97
 360 0038 0C34     		adds	r4, r4, #12	@ ivtmp.32, ivtmp.32,
 361              	.LVL29:
  45:/home/stero141/Projects/MicrocontrollersProjects/opentx-release-2.3.15/radio/src/thirdparty/Lua/src/lrotable.c ****     void * table = (void *)(&lua_rotable[i]);
 362              		.loc 1 45 35 is_stmt 0 discriminator 2 view .LVU98
 363 003a E9E7     		b	.L19		@
 364              	.LVL30:
 365              	.L23:
 366              	.LBB39:
  53:/home/stero141/Projects/MicrocontrollersProjects/opentx-release-2.3.15/radio/src/thirdparty/Lua/src/lrotable.c ****         TRACE_LUA_INTERNALS("luaR_findglobal('%s') = FOUND in table '%s'", name, lua_rotable[i].nam
 367              		.loc 1 53 7 is_stmt 1 view .LVU99
 368              	@ /home/stero141/Projects/MicrocontrollersProjects/opentx-release-2.3.15/radio/src/thirdparty/Lua/s
  53:/home/stero141/Projects/MicrocontrollersProjects/opentx-release-2.3.15/radio/src/thirdparty/Lua/src/lrotable.c ****         TRACE_LUA_INTERNALS("luaR_findglobal('%s') = FOUND in table '%s'", name, lua_rotable[i].nam
 369              		.loc 1 53 11 is_stmt 0 view .LVU100
 370 003c 2A46     		mov	r2, r5	@, val
 371 003e 3146     		mov	r1, r6	@, name
 372 0040 2046     		mov	r0, r4	@, ivtmp.32
 373 0042 FFF7FEFF 		bl	luaR_findentry		@
 374              	.LVL31:
 375              	@ /home/stero141/Projects/MicrocontrollersProjects/opentx-release-2.3.15/radio/src/thirdparty/Lua/s
  53:/home/stero141/Projects/MicrocontrollersProjects/opentx-release-2.3.15/radio/src/thirdparty/Lua/src/lrotable.c ****         TRACE_LUA_INTERNALS("luaR_findglobal('%s') = FOUND in table '%s'", name, lua_rotable[i].nam
 376              		.loc 1 53 10 discriminator 1 view .LVU101
 377 0046 0028     		cmp	r0, #0	@ tmp139
 378 0048 F6D0     		beq	.L24	@
 379 004a EDE7     		b	.L22		@
 380              	.L27:
 381              		.align	2
 382              	.L26:
 383 004c 00000000 		.word	lua_rotable
 384 0050 00000000 		.word	.LC0
 385              	.LBE39:
 386              		.cfi_endproc
 387              	.LFE11:
 388              		.size	luaR_findglobal, .-luaR_findglobal
 389              		.text
 390              	.Letext0:
 391              		.file 2 "/home/stero141/arm-toolchains/arm-gnu-toolchain-14.2.rel1-x86_64-arm-none-eabi/lib/gcc/ar
 392              		.file 3 "/home/stero141/arm-toolchains/arm-gnu-toolchain-14.2.rel1-x86_64-arm-none-eabi/arm-none-e
 393              		.file 4 "/home/stero141/arm-toolchains/arm-gnu-toolchain-14.2.rel1-x86_64-arm-none-eabi/arm-none-e
 394              		.file 5 "/home/stero141/Projects/MicrocontrollersProjects/opentx-release-2.3.15/radio/src/thirdpar
 395              		.file 6 "/home/stero141/Projects/MicrocontrollersProjects/opentx-release-2.3.15/radio/src/thirdpar
 396              		.file 7 "/home/stero141/Projects/MicrocontrollersProjects/opentx-release-2.3.15/radio/src/thirdpar
ARM GAS  /tmp/cc7hh7FW.s 			page 11


 397              		.file 8 "/home/stero141/Projects/MicrocontrollersProjects/opentx-release-2.3.15/radio/src/thirdpar
 398              		.file 9 "/home/stero141/arm-toolchains/arm-gnu-toolchain-14.2.rel1-x86_64-arm-none-eabi/arm-none-e
 399              		.section	.debug_info,"",%progbits
 400              	.Ldebug_info0:
 401 0000 E8060000 		.4byte	0x6e8
 402 0004 0200     		.2byte	0x2
 403 0006 00000000 		.4byte	.Ldebug_abbrev0
 404 000a 04       		.byte	0x4
 405 000b 01       		.uleb128 0x1
 406 000c 5C000000 		.4byte	.LASF47
 407 0010 0C       		.byte	0xc
 408 0011 DC020000 		.4byte	.LASF48
 409 0015 39010000 		.4byte	.LASF49
 410 0019 B0000000 		.4byte	.Ldebug_ranges0+0xb0
 411 001d 00000000 		.4byte	0
 412 0021 00000000 		.4byte	0
 413 0025 00000000 		.4byte	.Ldebug_line0
 414 0029 02       		.uleb128 0x2
 415 002a 04       		.byte	0x4
 416 002b 05       		.byte	0x5
 417 002c 696E7400 		.ascii	"int\000"
 418 0030 03       		.uleb128 0x3
 419 0031 1C000000 		.4byte	.LASF3
 420 0035 02       		.byte	0x2
 421 0036 D6       		.byte	0xd6
 422 0037 17       		.byte	0x17
 423 0038 3C000000 		.4byte	0x3c
 424 003c 04       		.uleb128 0x4
 425 003d 04       		.byte	0x4
 426 003e 07       		.byte	0x7
 427 003f 15020000 		.4byte	.LASF0
 428 0043 04       		.uleb128 0x4
 429 0044 08       		.byte	0x8
 430 0045 05       		.byte	0x5
 431 0046 2B010000 		.4byte	.LASF1
 432 004a 04       		.uleb128 0x4
 433 004b 08       		.byte	0x8
 434 004c 04       		.byte	0x4
 435 004d D0010000 		.4byte	.LASF2
 436 0051 03       		.uleb128 0x3
 437 0052 52020000 		.4byte	.LASF4
 438 0056 03       		.byte	0x3
 439 0057 29       		.byte	0x29
 440 0058 17       		.byte	0x17
 441 0059 5D000000 		.4byte	0x5d
 442 005d 04       		.uleb128 0x4
 443 005e 01       		.byte	0x1
 444 005f 06       		.byte	0x6
 445 0060 E7010000 		.4byte	.LASF5
 446 0064 03       		.uleb128 0x3
 447 0065 B8010000 		.4byte	.LASF6
 448 0069 03       		.byte	0x3
 449 006a 2B       		.byte	0x2b
 450 006b 18       		.byte	0x18
 451 006c 70000000 		.4byte	0x70
 452 0070 04       		.uleb128 0x4
 453 0071 01       		.byte	0x1
ARM GAS  /tmp/cc7hh7FW.s 			page 12


 454 0072 08       		.byte	0x8
 455 0073 C2010000 		.4byte	.LASF7
 456 0077 04       		.uleb128 0x4
 457 0078 02       		.byte	0x2
 458 0079 05       		.byte	0x5
 459 007a 12000000 		.4byte	.LASF8
 460 007e 04       		.uleb128 0x4
 461 007f 02       		.byte	0x2
 462 0080 07       		.byte	0x7
 463 0081 3F020000 		.4byte	.LASF9
 464 0085 04       		.uleb128 0x4
 465 0086 04       		.byte	0x4
 466 0087 05       		.byte	0x5
 467 0088 98010000 		.4byte	.LASF10
 468 008c 04       		.uleb128 0x4
 469 008d 04       		.byte	0x4
 470 008e 07       		.byte	0x7
 471 008f 86020000 		.4byte	.LASF11
 472 0093 04       		.uleb128 0x4
 473 0094 08       		.byte	0x8
 474 0095 07       		.byte	0x7
 475 0096 F3010000 		.4byte	.LASF12
 476 009a 05       		.uleb128 0x5
 477 009b 04       		.byte	0x4
 478 009c 04       		.uleb128 0x4
 479 009d 01       		.byte	0x1
 480 009e 08       		.byte	0x8
 481 009f 69020000 		.4byte	.LASF13
 482 00a3 06       		.uleb128 0x6
 483 00a4 9C000000 		.4byte	0x9c
 484 00a8 07       		.uleb128 0x7
 485 00a9 04       		.byte	0x4
 486 00aa A3000000 		.4byte	0xa3
 487 00ae 03       		.uleb128 0x3
 488 00af 0B000000 		.4byte	.LASF14
 489 00b3 04       		.byte	0x4
 490 00b4 14       		.byte	0x14
 491 00b5 12       		.byte	0x12
 492 00b6 51000000 		.4byte	0x51
 493 00ba 03       		.uleb128 0x3
 494 00bb 3C000000 		.4byte	.LASF15
 495 00bf 04       		.byte	0x4
 496 00c0 18       		.byte	0x18
 497 00c1 13       		.byte	0x13
 498 00c2 64000000 		.4byte	0x64
 499 00c6 04       		.uleb128 0x4
 500 00c7 04       		.byte	0x4
 501 00c8 04       		.byte	0x4
 502 00c9 19010000 		.4byte	.LASF16
 503 00cd 04       		.uleb128 0x4
 504 00ce 08       		.byte	0x8
 505 00cf 04       		.byte	0x4
 506 00d0 BF020000 		.4byte	.LASF17
 507 00d4 03       		.uleb128 0x3
 508 00d5 5B030000 		.4byte	.LASF18
 509 00d9 05       		.byte	0x5
 510 00da 36       		.byte	0x36
ARM GAS  /tmp/cc7hh7FW.s 			page 13


 511 00db 1A       		.byte	0x1a
 512 00dc E0000000 		.4byte	0xe0
 513 00e0 08       		.uleb128 0x8
 514 00e1 5B030000 		.4byte	.LASF18
 515 00e5 01       		.byte	0x1
 516 00e6 03       		.uleb128 0x3
 517 00e7 5B020000 		.4byte	.LASF19
 518 00eb 05       		.byte	0x5
 519 00ec 38       		.byte	0x38
 520 00ed 0F       		.byte	0xf
 521 00ee F2000000 		.4byte	0xf2
 522 00f2 07       		.uleb128 0x7
 523 00f3 04       		.byte	0x4
 524 00f4 F8000000 		.4byte	0xf8
 525 00f8 09       		.uleb128 0x9
 526 00f9 01       		.byte	0x1
 527 00fa 29000000 		.4byte	0x29
 528 00fe 08010000 		.4byte	0x108
 529 0102 0A       		.uleb128 0xa
 530 0103 08010000 		.4byte	0x108
 531 0107 00       		.byte	0
 532 0108 07       		.uleb128 0x7
 533 0109 04       		.byte	0x4
 534 010a D4000000 		.4byte	0xd4
 535 010e 07       		.uleb128 0x7
 536 010f 04       		.byte	0x4
 537 0110 14010000 		.4byte	0x114
 538 0114 0B       		.uleb128 0xb
 539 0115 03       		.uleb128 0x3
 540 0116 DC010000 		.4byte	.LASF20
 541 011a 05       		.byte	0x5
 542 011b 69       		.byte	0x69
 543 011c 14       		.byte	0x14
 544 011d CD000000 		.4byte	0xcd
 545 0121 0C       		.uleb128 0xc
 546 0122 44000000 		.4byte	.LASF23
 547 0126 08       		.byte	0x8
 548 0127 06       		.byte	0x6
 549 0128 16       		.byte	0x16
 550 0129 10       		.byte	0x10
 551 012a 4D010000 		.4byte	0x14d
 552 012e 0D       		.uleb128 0xd
 553 012f B4020000 		.4byte	.LASF21
 554 0133 06       		.byte	0x6
 555 0134 17       		.byte	0x17
 556 0135 0F       		.byte	0xf
 557 0136 A8000000 		.4byte	0xa8
 558 013a 02       		.byte	0x2
 559 013b 23       		.byte	0x23
 560 013c 00       		.uleb128 0
 561 013d 0D       		.uleb128 0xd
 562 013e 26010000 		.4byte	.LASF22
 563 0142 06       		.byte	0x6
 564 0143 18       		.byte	0x18
 565 0144 11       		.byte	0x11
 566 0145 E6000000 		.4byte	0xe6
 567 0149 02       		.byte	0x2
ARM GAS  /tmp/cc7hh7FW.s 			page 14


 568 014a 23       		.byte	0x23
 569 014b 04       		.uleb128 0x4
 570 014c 00       		.byte	0
 571 014d 03       		.uleb128 0x3
 572 014e 44000000 		.4byte	.LASF23
 573 0152 06       		.byte	0x6
 574 0153 19       		.byte	0x19
 575 0154 03       		.byte	0x3
 576 0155 21010000 		.4byte	0x121
 577 0159 06       		.uleb128 0x6
 578 015a 4D010000 		.4byte	0x14d
 579 015e 03       		.uleb128 0x3
 580 015f D3020000 		.4byte	.LASF24
 581 0163 07       		.byte	0x7
 582 0164 45       		.byte	0x45
 583 0165 18       		.byte	0x18
 584 0166 6A010000 		.4byte	0x16a
 585 016a 0E       		.uleb128 0xe
 586 016b D3020000 		.4byte	.LASF24
 587 016f 01       		.byte	0x1
 588 0170 07       		.uleb128 0x7
 589 0171 04       		.byte	0x4
 590 0172 5E010000 		.4byte	0x15e
 591 0176 03       		.uleb128 0x3
 592 0177 2D020000 		.4byte	.LASF25
 593 017b 07       		.byte	0x7
 594 017c 5B       		.byte	0x5b
 595 017d 15       		.byte	0x15
 596 017e 82010000 		.4byte	0x182
 597 0182 0F       		.uleb128 0xf
 598 0183 2D020000 		.4byte	.LASF25
 599 0187 08       		.byte	0x8
 600 0188 07       		.byte	0x7
 601 0189 8D01     		.2byte	0x18d
 602 018b 07       		.byte	0x7
 603 018c C9010000 		.4byte	0x1c9
 604 0190 10       		.uleb128 0x10
 605 0191 676300   		.ascii	"gc\000"
 606 0194 07       		.byte	0x7
 607 0195 8E01     		.2byte	0x18e
 608 0197 0D       		.byte	0xd
 609 0198 70010000 		.4byte	0x170
 610 019c 10       		.uleb128 0x10
 611 019d 7000     		.ascii	"p\000"
 612 019f 07       		.byte	0x7
 613 01a0 8F01     		.2byte	0x18f
 614 01a2 09       		.byte	0x9
 615 01a3 9A000000 		.4byte	0x9a
 616 01a7 10       		.uleb128 0x10
 617 01a8 6200     		.ascii	"b\000"
 618 01aa 07       		.byte	0x7
 619 01ab 9001     		.2byte	0x190
 620 01ad 07       		.byte	0x7
 621 01ae 29000000 		.4byte	0x29
 622 01b2 10       		.uleb128 0x10
 623 01b3 6600     		.ascii	"f\000"
 624 01b5 07       		.byte	0x7
ARM GAS  /tmp/cc7hh7FW.s 			page 15


 625 01b6 9101     		.2byte	0x191
 626 01b8 11       		.byte	0x11
 627 01b9 E6000000 		.4byte	0xe6
 628 01bd 10       		.uleb128 0x10
 629 01be 6E00     		.ascii	"n\000"
 630 01c0 07       		.byte	0x7
 631 01c1 9201     		.2byte	0x192
 632 01c3 03       		.byte	0x3
 633 01c4 15010000 		.4byte	0x115
 634 01c8 00       		.byte	0
 635 01c9 11       		.uleb128 0x11
 636 01ca 09       		.byte	0x9
 637 01cb 07       		.byte	0x7
 638 01cc 9601     		.2byte	0x196
 639 01ce 01       		.byte	0x1
 640 01cf F4010000 		.4byte	0x1f4
 641 01d3 12       		.uleb128 0x12
 642 01d4 1F010000 		.4byte	.LASF26
 643 01d8 07       		.byte	0x7
 644 01d9 9601     		.2byte	0x196
 645 01db 01       		.byte	0x1
 646 01dc 76010000 		.4byte	0x176
 647 01e0 02       		.byte	0x2
 648 01e1 23       		.byte	0x23
 649 01e2 00       		.uleb128 0
 650 01e3 13       		.uleb128 0x13
 651 01e4 74745F00 		.ascii	"tt_\000"
 652 01e8 07       		.byte	0x7
 653 01e9 9601     		.2byte	0x196
 654 01eb 01       		.byte	0x1
 655 01ec AE000000 		.4byte	0xae
 656 01f0 02       		.byte	0x2
 657 01f1 23       		.byte	0x23
 658 01f2 08       		.uleb128 0x8
 659 01f3 00       		.byte	0
 660 01f4 14       		.uleb128 0x14
 661 01f5 22020000 		.4byte	.LASF27
 662 01f9 07       		.byte	0x7
 663 01fa 9801     		.2byte	0x198
 664 01fc 04       		.byte	0x4
 665 01fd C9010000 		.4byte	0x1c9
 666 0201 07       		.uleb128 0x7
 667 0202 04       		.byte	0x4
 668 0203 F4010000 		.4byte	0x1f4
 669 0207 03       		.uleb128 0x3
 670 0208 33020000 		.4byte	.LASF28
 671 020c 08       		.byte	0x8
 672 020d 0B       		.byte	0xb
 673 020e 11       		.byte	0x11
 674 020f BA000000 		.4byte	0xba
 675 0213 15       		.uleb128 0x15
 676 0214 10       		.byte	0x10
 677 0215 08       		.byte	0x8
 678 0216 0E       		.byte	0xe
 679 0217 09       		.byte	0x9
 680 0218 3B020000 		.4byte	0x23b
 681 021c 0D       		.uleb128 0xd
ARM GAS  /tmp/cc7hh7FW.s 			page 16


 682 021d B4020000 		.4byte	.LASF21
 683 0221 08       		.byte	0x8
 684 0222 10       		.byte	0x10
 685 0223 0F       		.byte	0xf
 686 0224 A8000000 		.4byte	0xa8
 687 0228 02       		.byte	0x2
 688 0229 23       		.byte	0x23
 689 022a 00       		.uleb128 0
 690 022b 0D       		.uleb128 0xd
 691 022c 36000000 		.4byte	.LASF29
 692 0230 08       		.byte	0x8
 693 0231 11       		.byte	0x11
 694 0232 0E       		.byte	0xe
 695 0233 15010000 		.4byte	0x115
 696 0237 02       		.byte	0x2
 697 0238 23       		.byte	0x23
 698 0239 08       		.uleb128 0x8
 699 023a 00       		.byte	0
 700 023b 03       		.uleb128 0x3
 701 023c A7010000 		.4byte	.LASF30
 702 0240 08       		.byte	0x8
 703 0241 12       		.byte	0x12
 704 0242 03       		.byte	0x3
 705 0243 13020000 		.4byte	0x213
 706 0247 06       		.uleb128 0x6
 707 0248 3B020000 		.4byte	0x23b
 708 024c 15       		.uleb128 0x15
 709 024d 0C       		.byte	0xc
 710 024e 08       		.byte	0x8
 711 024f 19       		.byte	0x19
 712 0250 09       		.byte	0x9
 713 0251 83020000 		.4byte	0x283
 714 0255 0D       		.uleb128 0xd
 715 0256 B4020000 		.4byte	.LASF21
 716 025a 08       		.byte	0x8
 717 025b 1B       		.byte	0x1b
 718 025c 0F       		.byte	0xf
 719 025d A8000000 		.4byte	0xa8
 720 0261 02       		.byte	0x2
 721 0262 23       		.byte	0x23
 722 0263 00       		.uleb128 0
 723 0264 0D       		.uleb128 0xd
 724 0265 98020000 		.4byte	.LASF31
 725 0269 08       		.byte	0x8
 726 026a 1C       		.byte	0x1c
 727 026b 13       		.byte	0x13
 728 026c 83020000 		.4byte	0x283
 729 0270 02       		.byte	0x2
 730 0271 23       		.byte	0x23
 731 0272 04       		.uleb128 0x4
 732 0273 0D       		.uleb128 0xd
 733 0274 AC020000 		.4byte	.LASF32
 734 0278 08       		.byte	0x8
 735 0279 1D       		.byte	0x1d
 736 027a 1B       		.byte	0x1b
 737 027b 89020000 		.4byte	0x289
 738 027f 02       		.byte	0x2
ARM GAS  /tmp/cc7hh7FW.s 			page 17


 739 0280 23       		.byte	0x23
 740 0281 08       		.uleb128 0x8
 741 0282 00       		.byte	0
 742 0283 07       		.uleb128 0x7
 743 0284 04       		.byte	0x4
 744 0285 59010000 		.4byte	0x159
 745 0289 07       		.uleb128 0x7
 746 028a 04       		.byte	0x4
 747 028b 47020000 		.4byte	0x247
 748 028f 03       		.uleb128 0x3
 749 0290 2B000000 		.4byte	.LASF33
 750 0294 08       		.byte	0x8
 751 0295 1E       		.byte	0x1e
 752 0296 03       		.byte	0x3
 753 0297 4C020000 		.4byte	0x24c
 754 029b 06       		.uleb128 0x6
 755 029c 8F020000 		.4byte	0x28f
 756 02a0 16       		.uleb128 0x16
 757 02a1 9B020000 		.4byte	0x29b
 758 02a5 AB020000 		.4byte	0x2ab
 759 02a9 17       		.uleb128 0x17
 760 02aa 00       		.byte	0
 761 02ab 06       		.uleb128 0x6
 762 02ac A0020000 		.4byte	0x2a0
 763 02b0 18       		.uleb128 0x18
 764 02b1 7A020000 		.4byte	.LASF38
 765 02b5 08       		.byte	0x8
 766 02b6 20       		.byte	0x20
 767 02b7 19       		.byte	0x19
 768 02b8 AB020000 		.4byte	0x2ab
 769 02bc 01       		.byte	0x1
 770 02bd 01       		.byte	0x1
 771 02be 19       		.uleb128 0x19
 772 02bf 01       		.byte	0x1
 773 02c0 23000000 		.4byte	.LASF34
 774 02c4 09       		.byte	0x9
 775 02c5 2B       		.byte	0x2b
 776 02c6 06       		.byte	0x6
 777 02c7 01       		.byte	0x1
 778 02c8 29000000 		.4byte	0x29
 779 02cc 01       		.byte	0x1
 780 02cd E1020000 		.4byte	0x2e1
 781 02d1 0A       		.uleb128 0xa
 782 02d2 A8000000 		.4byte	0xa8
 783 02d6 0A       		.uleb128 0xa
 784 02d7 A8000000 		.4byte	0xa8
 785 02db 0A       		.uleb128 0xa
 786 02dc 3C000000 		.4byte	0x3c
 787 02e0 00       		.byte	0
 788 02e1 19       		.uleb128 0x19
 789 02e2 01       		.byte	0x1
 790 02e3 A5020000 		.4byte	.LASF35
 791 02e7 09       		.byte	0x9
 792 02e8 24       		.byte	0x24
 793 02e9 06       		.byte	0x6
 794 02ea 01       		.byte	0x1
 795 02eb 29000000 		.4byte	0x29
ARM GAS  /tmp/cc7hh7FW.s 			page 18


 796 02ef 01       		.byte	0x1
 797 02f0 FF020000 		.4byte	0x2ff
 798 02f4 0A       		.uleb128 0xa
 799 02f5 A8000000 		.4byte	0xa8
 800 02f9 0A       		.uleb128 0xa
 801 02fa A8000000 		.4byte	0xa8
 802 02fe 00       		.byte	0
 803 02ff 19       		.uleb128 0x19
 804 0300 01       		.byte	0x1
 805 0301 6E020000 		.4byte	.LASF36
 806 0305 09       		.byte	0x9
 807 0306 29       		.byte	0x29
 808 0307 09       		.byte	0x9
 809 0308 01       		.byte	0x1
 810 0309 30000000 		.4byte	0x30
 811 030d 01       		.byte	0x1
 812 030e 18030000 		.4byte	0x318
 813 0312 0A       		.uleb128 0xa
 814 0313 A8000000 		.4byte	0xa8
 815 0317 00       		.byte	0
 816 0318 1A       		.uleb128 0x1a
 817 0319 01       		.byte	0x1
 818 031a 4D000000 		.4byte	.LASF40
 819 031e 01       		.byte	0x1
 820 031f 40       		.byte	0x40
 821 0320 0D       		.byte	0xd
 822 0321 01       		.byte	0x1
 823 0322 07020000 		.4byte	0x207
 824 0326 00000000 		.4byte	.LFB12
 825 032a 4E000000 		.4byte	.LFE12
 826 032e 00000000 		.4byte	.LLST0
 827 0332 01       		.byte	0x1
 828 0333 61050000 		.4byte	0x561
 829 0337 1B       		.uleb128 0x1b
 830 0338 75020000 		.4byte	.LASF37
 831 033c 01       		.byte	0x1
 832 033d 40       		.byte	0x40
 833 033e 22       		.byte	0x22
 834 033f 9A000000 		.4byte	0x9a
 835 0343 24000000 		.4byte	.LLST1
 836 0347 20000000 		.4byte	.LVUS1
 837 034b 1C       		.uleb128 0x1c
 838 034c 6B657900 		.ascii	"key\000"
 839 0350 01       		.byte	0x1
 840 0351 40       		.byte	0x40
 841 0352 35       		.byte	0x35
 842 0353 A8000000 		.4byte	0xa8
 843 0357 46000000 		.4byte	.LLST2
 844 035b 42000000 		.4byte	.LVUS2
 845 035f 1C       		.uleb128 0x1c
 846 0360 76616C00 		.ascii	"val\000"
 847 0364 01       		.byte	0x1
 848 0365 40       		.byte	0x40
 849 0366 43       		.byte	0x43
 850 0367 01020000 		.4byte	0x201
 851 036b 68000000 		.4byte	.LLST3
 852 036f 64000000 		.4byte	.LVUS3
ARM GAS  /tmp/cc7hh7FW.s 			page 19


 853 0373 1D       		.uleb128 0x1d
 854 0374 B9020000 		.4byte	.LASF39
 855 0378 01       		.byte	0x1
 856 0379 41       		.byte	0x41
 857 037a 10       		.byte	0x10
 858 037b 61050000 		.4byte	0x561
 859 037f 8A000000 		.4byte	.LLST4
 860 0383 86000000 		.4byte	.LVUS4
 861 0387 1E       		.uleb128 0x1e
 862 0388 60060000 		.4byte	0x660
 863 038c 0A000000 		.4byte	.LBI16
 864 0390 00       		.byte	.LVU7
 865 0391 00000000 		.4byte	.Ldebug_ranges0+0
 866 0395 01       		.byte	0x1
 867 0396 43       		.byte	0x43
 868 0397 07       		.byte	0x7
 869 0398 79040000 		.4byte	0x479
 870 039c 1F       		.uleb128 0x1f
 871 039d 6E060000 		.4byte	0x66e
 872 03a1 AA000000 		.4byte	.LLST5
 873 03a5 A8000000 		.4byte	.LVUS5
 874 03a9 1F       		.uleb128 0x1f
 875 03aa 7A060000 		.4byte	0x67a
 876 03ae C3000000 		.4byte	.LLST6
 877 03b2 BD000000 		.4byte	.LVUS6
 878 03b6 1F       		.uleb128 0x1f
 879 03b7 86060000 		.4byte	0x686
 880 03bb F0000000 		.4byte	.LLST7
 881 03bf EC000000 		.4byte	.LVUS7
 882 03c3 1F       		.uleb128 0x1f
 883 03c4 92060000 		.4byte	0x692
 884 03c8 16010000 		.4byte	.LLST8
 885 03cc 10010000 		.4byte	.LVUS8
 886 03d0 20       		.uleb128 0x20
 887 03d1 00000000 		.4byte	.Ldebug_ranges0+0
 888 03d5 21       		.uleb128 0x21
 889 03d6 9E060000 		.4byte	0x69e
 890 03da 22       		.uleb128 0x22
 891 03db AA060000 		.4byte	0x6aa
 892 03df 41010000 		.4byte	.LLST9
 893 03e3 3F010000 		.4byte	.LVUS9
 894 03e7 22       		.uleb128 0x22
 895 03e8 B5060000 		.4byte	0x6b5
 896 03ec 56010000 		.4byte	.LLST10
 897 03f0 54010000 		.4byte	.LVUS10
 898 03f4 22       		.uleb128 0x22
 899 03f5 C0060000 		.4byte	0x6c0
 900 03f9 6F010000 		.4byte	.LLST11
 901 03fd 69010000 		.4byte	.LVUS11
 902 0401 23       		.uleb128 0x23
 903 0402 60060000 		.4byte	0x660
 904 0406 18000000 		.4byte	.Ldebug_ranges0+0x18
 905 040a 01       		.byte	0x1
 906 040b 0D       		.byte	0xd
 907 040c 14       		.byte	0x14
 908 040d 24       		.uleb128 0x24
 909 040e 6E060000 		.4byte	0x66e
ARM GAS  /tmp/cc7hh7FW.s 			page 20


 910 0412 24       		.uleb128 0x24
 911 0413 7A060000 		.4byte	0x67a
 912 0417 24       		.uleb128 0x24
 913 0418 86060000 		.4byte	0x686
 914 041c 24       		.uleb128 0x24
 915 041d 92060000 		.4byte	0x692
 916 0421 20       		.uleb128 0x20
 917 0422 18000000 		.4byte	.Ldebug_ranges0+0x18
 918 0426 22       		.uleb128 0x22
 919 0427 9E060000 		.4byte	0x69e
 920 042b 9D010000 		.4byte	.LLST12
 921 042f 9B010000 		.4byte	.LVUS12
 922 0433 22       		.uleb128 0x22
 923 0434 AA060000 		.4byte	0x6aa
 924 0438 B4010000 		.4byte	.LLST13
 925 043c B0010000 		.4byte	.LVUS13
 926 0440 21       		.uleb128 0x21
 927 0441 B5060000 		.4byte	0x6b5
 928 0445 21       		.uleb128 0x21
 929 0446 C0060000 		.4byte	0x6c0
 930 044a 25       		.uleb128 0x25
 931 044b CC060000 		.4byte	0x6cc
 932 044f 30000000 		.4byte	.Ldebug_ranges0+0x30
 933 0453 65040000 		.4byte	0x465
 934 0457 22       		.uleb128 0x22
 935 0458 D1060000 		.4byte	0x6d1
 936 045c D4010000 		.4byte	.LLST14
 937 0460 D2010000 		.4byte	.LVUS14
 938 0464 00       		.byte	0
 939 0465 26       		.uleb128 0x26
 940 0466 16000000 		.4byte	.LVL6
 941 046a E1020000 		.4byte	0x2e1
 942 046e 27       		.uleb128 0x27
 943 046f 01       		.byte	0x1
 944 0470 51       		.byte	0x51
 945 0471 02       		.byte	0x2
 946 0472 76       		.byte	0x76
 947 0473 00       		.sleb128 0
 948 0474 00       		.byte	0
 949 0475 00       		.byte	0
 950 0476 00       		.byte	0
 951 0477 00       		.byte	0
 952 0478 00       		.byte	0
 953 0479 28       		.uleb128 0x28
 954 047a 60060000 		.4byte	0x660
 955 047e 2A000000 		.4byte	.LBI25
 956 0482 00       		.byte	.LVU41
 957 0483 48000000 		.4byte	.Ldebug_ranges0+0x48
 958 0487 01       		.byte	0x1
 959 0488 47       		.byte	0x47
 960 0489 0C       		.byte	0xc
 961 048a 1F       		.uleb128 0x1f
 962 048b 6E060000 		.4byte	0x66e
 963 048f EB010000 		.4byte	.LLST15
 964 0493 E7010000 		.4byte	.LVUS15
 965 0497 1F       		.uleb128 0x1f
 966 0498 7A060000 		.4byte	0x67a
ARM GAS  /tmp/cc7hh7FW.s 			page 21


 967 049c 0D020000 		.4byte	.LLST16
 968 04a0 09020000 		.4byte	.LVUS16
 969 04a4 1F       		.uleb128 0x1f
 970 04a5 86060000 		.4byte	0x686
 971 04a9 2F020000 		.4byte	.LLST17
 972 04ad 2B020000 		.4byte	.LVUS17
 973 04b1 1F       		.uleb128 0x1f
 974 04b2 92060000 		.4byte	0x692
 975 04b6 53020000 		.4byte	.LLST18
 976 04ba 4F020000 		.4byte	.LVUS18
 977 04be 20       		.uleb128 0x20
 978 04bf 48000000 		.4byte	.Ldebug_ranges0+0x48
 979 04c3 21       		.uleb128 0x21
 980 04c4 9E060000 		.4byte	0x69e
 981 04c8 22       		.uleb128 0x22
 982 04c9 AA060000 		.4byte	0x6aa
 983 04cd 75020000 		.4byte	.LLST19
 984 04d1 71020000 		.4byte	.LVUS19
 985 04d5 22       		.uleb128 0x22
 986 04d6 B5060000 		.4byte	0x6b5
 987 04da 97020000 		.4byte	.LLST20
 988 04de 93020000 		.4byte	.LVUS20
 989 04e2 29       		.uleb128 0x29
 990 04e3 C0060000 		.4byte	0x6c0
 991 04e7 00       		.byte	0
 992 04e8 23       		.uleb128 0x23
 993 04e9 60060000 		.4byte	0x660
 994 04ed 60000000 		.4byte	.Ldebug_ranges0+0x60
 995 04f1 01       		.byte	0x1
 996 04f2 0D       		.byte	0xd
 997 04f3 14       		.byte	0x14
 998 04f4 24       		.uleb128 0x24
 999 04f5 6E060000 		.4byte	0x66e
 1000 04f9 24       		.uleb128 0x24
 1001 04fa 7A060000 		.4byte	0x67a
 1002 04fe 24       		.uleb128 0x24
 1003 04ff 86060000 		.4byte	0x686
 1004 0503 24       		.uleb128 0x24
 1005 0504 92060000 		.4byte	0x692
 1006 0508 20       		.uleb128 0x20
 1007 0509 60000000 		.4byte	.Ldebug_ranges0+0x60
 1008 050d 22       		.uleb128 0x22
 1009 050e 9E060000 		.4byte	0x69e
 1010 0512 B7020000 		.4byte	.LLST21
 1011 0516 B5020000 		.4byte	.LVUS21
 1012 051a 21       		.uleb128 0x21
 1013 051b AA060000 		.4byte	0x6aa
 1014 051f 22       		.uleb128 0x22
 1015 0520 B5060000 		.4byte	0x6b5
 1016 0524 CE020000 		.4byte	.LLST22
 1017 0528 CA020000 		.4byte	.LVUS22
 1018 052c 21       		.uleb128 0x21
 1019 052d C0060000 		.4byte	0x6c0
 1020 0531 25       		.uleb128 0x25
 1021 0532 DD060000 		.4byte	0x6dd
 1022 0536 78000000 		.4byte	.Ldebug_ranges0+0x78
 1023 053a 4C050000 		.4byte	0x54c
ARM GAS  /tmp/cc7hh7FW.s 			page 22


 1024 053e 22       		.uleb128 0x22
 1025 053f DE060000 		.4byte	0x6de
 1026 0543 EE020000 		.4byte	.LLST23
 1027 0547 EC020000 		.4byte	.LVUS23
 1028 054b 00       		.byte	0
 1029 054c 26       		.uleb128 0x26
 1030 054d 38000000 		.4byte	.LVL16
 1031 0551 E1020000 		.4byte	0x2e1
 1032 0555 27       		.uleb128 0x27
 1033 0556 01       		.byte	0x1
 1034 0557 51       		.byte	0x51
 1035 0558 02       		.byte	0x2
 1036 0559 76       		.byte	0x76
 1037 055a 00       		.sleb128 0
 1038 055b 00       		.byte	0
 1039 055c 00       		.byte	0
 1040 055d 00       		.byte	0
 1041 055e 00       		.byte	0
 1042 055f 00       		.byte	0
 1043 0560 00       		.byte	0
 1044 0561 07       		.uleb128 0x7
 1045 0562 04       		.byte	0x4
 1046 0563 8F020000 		.4byte	0x28f
 1047 0567 1A       		.uleb128 0x1a
 1048 0568 01       		.byte	0x1
 1049 0569 4B030000 		.4byte	.LASF41
 1050 056d 01       		.byte	0x1
 1051 056e 27       		.byte	0x27
 1052 056f 0D       		.byte	0xd
 1053 0570 01       		.byte	0x1
 1054 0571 07020000 		.4byte	0x207
 1055 0575 00000000 		.4byte	.LFB11
 1056 0579 54000000 		.4byte	.LFE11
 1057 057d 01030000 		.4byte	.LLST24
 1058 0581 01       		.byte	0x1
 1059 0582 60060000 		.4byte	0x660
 1060 0586 1B       		.uleb128 0x1b
 1061 0587 B4020000 		.4byte	.LASF21
 1062 058b 01       		.byte	0x1
 1063 058c 27       		.byte	0x27
 1064 058d 2A       		.byte	0x2a
 1065 058e A8000000 		.4byte	0xa8
 1066 0592 25030000 		.4byte	.LLST25
 1067 0596 21030000 		.4byte	.LVUS25
 1068 059a 1C       		.uleb128 0x1c
 1069 059b 76616C00 		.ascii	"val\000"
 1070 059f 01       		.byte	0x1
 1071 05a0 27       		.byte	0x27
 1072 05a1 39       		.byte	0x39
 1073 05a2 01020000 		.4byte	0x201
 1074 05a6 47030000 		.4byte	.LLST26
 1075 05aa 43030000 		.4byte	.LVUS26
 1076 05ae 2A       		.uleb128 0x2a
 1077 05af 6900     		.ascii	"i\000"
 1078 05b1 01       		.byte	0x1
 1079 05b2 28       		.byte	0x28
 1080 05b3 0C       		.byte	0xc
ARM GAS  /tmp/cc7hh7FW.s 			page 23


 1081 05b4 3C000000 		.4byte	0x3c
 1082 05b8 2B       		.uleb128 0x2b
 1083 05b9 98000000 		.4byte	.Ldebug_ranges0+0x98
 1084 05bd 4F060000 		.4byte	0x64f
 1085 05c1 1D       		.uleb128 0x1d
 1086 05c2 B9020000 		.4byte	.LASF39
 1087 05c6 01       		.byte	0x1
 1088 05c7 2E       		.byte	0x2e
 1089 05c8 0C       		.byte	0xc
 1090 05c9 9A000000 		.4byte	0x9a
 1091 05cd 6B030000 		.4byte	.LLST27
 1092 05d1 65030000 		.4byte	.LVUS27
 1093 05d5 2C       		.uleb128 0x2c
 1094 05d6 22000000 		.4byte	.LBB38
 1095 05da 28000000 		.4byte	.LBE38
 1096 05de F6050000 		.4byte	0x5f6
 1097 05e2 2D       		.uleb128 0x2d
 1098 05e3 696F00   		.ascii	"io\000"
 1099 05e6 01       		.byte	0x1
 1100 05e7 30       		.byte	0x30
 1101 05e8 07       		.byte	0x7
 1102 05e9 01020000 		.4byte	0x201
 1103 05ed 98030000 		.4byte	.LLST28
 1104 05f1 96030000 		.4byte	.LVUS28
 1105 05f5 00       		.byte	0
 1106 05f6 2E       		.uleb128 0x2e
 1107 05f7 20000000 		.4byte	.LVL25
 1108 05fb E1020000 		.4byte	0x2e1
 1109 05ff 10060000 		.4byte	0x610
 1110 0603 27       		.uleb128 0x27
 1111 0604 01       		.byte	0x1
 1112 0605 50       		.byte	0x50
 1113 0606 02       		.byte	0x2
 1114 0607 77       		.byte	0x77
 1115 0608 00       		.sleb128 0
 1116 0609 27       		.uleb128 0x27
 1117 060a 01       		.byte	0x1
 1118 060b 51       		.byte	0x51
 1119 060c 02       		.byte	0x2
 1120 060d 76       		.byte	0x76
 1121 060e 00       		.sleb128 0
 1122 060f 00       		.byte	0
 1123 0610 2E       		.uleb128 0x2e
 1124 0611 36000000 		.4byte	.LVL28
 1125 0615 BE020000 		.4byte	0x2be
 1126 0619 32060000 		.4byte	0x632
 1127 061d 27       		.uleb128 0x27
 1128 061e 01       		.byte	0x1
 1129 061f 50       		.byte	0x50
 1130 0620 02       		.byte	0x2
 1131 0621 77       		.byte	0x77
 1132 0622 00       		.sleb128 0
 1133 0623 27       		.uleb128 0x27
 1134 0624 01       		.byte	0x1
 1135 0625 51       		.byte	0x51
 1136 0626 05       		.byte	0x5
 1137 0627 03       		.byte	0x3
ARM GAS  /tmp/cc7hh7FW.s 			page 24


 1138 0628 00000000 		.4byte	.LC0
 1139 062c 27       		.uleb128 0x27
 1140 062d 01       		.byte	0x1
 1141 062e 52       		.byte	0x52
 1142 062f 01       		.byte	0x1
 1143 0630 32       		.byte	0x32
 1144 0631 00       		.byte	0
 1145 0632 26       		.uleb128 0x26
 1146 0633 46000000 		.4byte	.LVL31
 1147 0637 18030000 		.4byte	0x318
 1148 063b 27       		.uleb128 0x27
 1149 063c 01       		.byte	0x1
 1150 063d 50       		.byte	0x50
 1151 063e 02       		.byte	0x2
 1152 063f 74       		.byte	0x74
 1153 0640 00       		.sleb128 0
 1154 0641 27       		.uleb128 0x27
 1155 0642 01       		.byte	0x1
 1156 0643 51       		.byte	0x51
 1157 0644 02       		.byte	0x2
 1158 0645 76       		.byte	0x76
 1159 0646 00       		.sleb128 0
 1160 0647 27       		.uleb128 0x27
 1161 0648 01       		.byte	0x1
 1162 0649 52       		.byte	0x52
 1163 064a 02       		.byte	0x2
 1164 064b 75       		.byte	0x75
 1165 064c 00       		.sleb128 0
 1166 064d 00       		.byte	0
 1167 064e 00       		.byte	0
 1168 064f 26       		.uleb128 0x26
 1169 0650 0A000000 		.4byte	.LVL23
 1170 0654 FF020000 		.4byte	0x2ff
 1171 0658 27       		.uleb128 0x27
 1172 0659 01       		.byte	0x1
 1173 065a 50       		.byte	0x50
 1174 065b 02       		.byte	0x2
 1175 065c 76       		.byte	0x76
 1176 065d 00       		.sleb128 0
 1177 065e 00       		.byte	0
 1178 065f 00       		.byte	0
 1179 0660 2F       		.uleb128 0x2f
 1180 0661 C6020000 		.4byte	.LASF50
 1181 0665 01       		.byte	0x1
 1182 0666 0D       		.byte	0xd
 1183 0667 14       		.byte	0x14
 1184 0668 01       		.byte	0x1
 1185 0669 07020000 		.4byte	0x207
 1186 066d 01       		.byte	0x1
 1187 066e 30       		.uleb128 0x30
 1188 066f A1010000 		.4byte	.LASF42
 1189 0673 01       		.byte	0x1
 1190 0674 0D       		.byte	0xd
 1191 0675 2E       		.byte	0x2e
 1192 0676 0E010000 		.4byte	0x10e
 1193 067a 31       		.uleb128 0x31
 1194 067b 6B657900 		.ascii	"key\000"
ARM GAS  /tmp/cc7hh7FW.s 			page 25


 1195 067f 01       		.byte	0x1
 1196 0680 0D       		.byte	0xd
 1197 0681 42       		.byte	0x42
 1198 0682 A8000000 		.4byte	0xa8
 1199 0686 30       		.uleb128 0x30
 1200 0687 0A020000 		.4byte	.LASF43
 1201 068b 01       		.byte	0x1
 1202 068c 0D       		.byte	0xd
 1203 068d 4B       		.byte	0x4b
 1204 068e 29000000 		.4byte	0x29
 1205 0692 30       		.uleb128 0x30
 1206 0693 9F020000 		.4byte	.LASF44
 1207 0697 01       		.byte	0x1
 1208 0698 0D       		.byte	0xd
 1209 0699 5A       		.byte	0x5a
 1210 069a 01020000 		.4byte	0x201
 1211 069e 32       		.uleb128 0x32
 1212 069f 0F020000 		.4byte	.LASF45
 1213 06a3 01       		.byte	0x1
 1214 06a4 0E       		.byte	0xe
 1215 06a5 0F       		.byte	0xf
 1216 06a6 A8000000 		.4byte	0xa8
 1217 06aa 2A       		.uleb128 0x2a
 1218 06ab 706600   		.ascii	"pf\000"
 1219 06ae 01       		.byte	0x1
 1220 06af 0F       		.byte	0xf
 1221 06b0 13       		.byte	0x13
 1222 06b1 83020000 		.4byte	0x283
 1223 06b5 2A       		.uleb128 0x2a
 1224 06b6 707600   		.ascii	"pv\000"
 1225 06b9 01       		.byte	0x1
 1226 06ba 10       		.byte	0x10
 1227 06bb 1B       		.byte	0x1b
 1228 06bc 89020000 		.4byte	0x289
 1229 06c0 32       		.uleb128 0x32
 1230 06c1 00000000 		.4byte	.LASF46
 1231 06c5 01       		.byte	0x1
 1232 06c6 11       		.byte	0x11
 1233 06c7 07       		.byte	0x7
 1234 06c8 29000000 		.4byte	0x29
 1235 06cc 33       		.uleb128 0x33
 1236 06cd DD060000 		.4byte	0x6dd
 1237 06d1 2A       		.uleb128 0x2a
 1238 06d2 696F00   		.ascii	"io\000"
 1239 06d5 01       		.byte	0x1
 1240 06d6 19       		.byte	0x19
 1241 06d7 09       		.byte	0x9
 1242 06d8 01020000 		.4byte	0x201
 1243 06dc 00       		.byte	0
 1244 06dd 34       		.uleb128 0x34
 1245 06de 2A       		.uleb128 0x2a
 1246 06df 696F00   		.ascii	"io\000"
 1247 06e2 01       		.byte	0x1
 1248 06e3 1C       		.byte	0x1c
 1249 06e4 09       		.byte	0x9
 1250 06e5 01020000 		.4byte	0x201
 1251 06e9 00       		.byte	0
ARM GAS  /tmp/cc7hh7FW.s 			page 26


 1252 06ea 00       		.byte	0
 1253 06eb 00       		.byte	0
 1254              		.section	.debug_abbrev,"",%progbits
 1255              	.Ldebug_abbrev0:
 1256 0000 01       		.uleb128 0x1
 1257 0001 11       		.uleb128 0x11
 1258 0002 01       		.byte	0x1
 1259 0003 25       		.uleb128 0x25
 1260 0004 0E       		.uleb128 0xe
 1261 0005 13       		.uleb128 0x13
 1262 0006 0B       		.uleb128 0xb
 1263 0007 03       		.uleb128 0x3
 1264 0008 0E       		.uleb128 0xe
 1265 0009 1B       		.uleb128 0x1b
 1266 000a 0E       		.uleb128 0xe
 1267 000b 55       		.uleb128 0x55
 1268 000c 06       		.uleb128 0x6
 1269 000d 11       		.uleb128 0x11
 1270 000e 01       		.uleb128 0x1
 1271 000f 52       		.uleb128 0x52
 1272 0010 01       		.uleb128 0x1
 1273 0011 10       		.uleb128 0x10
 1274 0012 06       		.uleb128 0x6
 1275 0013 00       		.byte	0
 1276 0014 00       		.byte	0
 1277 0015 02       		.uleb128 0x2
 1278 0016 24       		.uleb128 0x24
 1279 0017 00       		.byte	0
 1280 0018 0B       		.uleb128 0xb
 1281 0019 0B       		.uleb128 0xb
 1282 001a 3E       		.uleb128 0x3e
 1283 001b 0B       		.uleb128 0xb
 1284 001c 03       		.uleb128 0x3
 1285 001d 08       		.uleb128 0x8
 1286 001e 00       		.byte	0
 1287 001f 00       		.byte	0
 1288 0020 03       		.uleb128 0x3
 1289 0021 16       		.uleb128 0x16
 1290 0022 00       		.byte	0
 1291 0023 03       		.uleb128 0x3
 1292 0024 0E       		.uleb128 0xe
 1293 0025 3A       		.uleb128 0x3a
 1294 0026 0B       		.uleb128 0xb
 1295 0027 3B       		.uleb128 0x3b
 1296 0028 0B       		.uleb128 0xb
 1297 0029 39       		.uleb128 0x39
 1298 002a 0B       		.uleb128 0xb
 1299 002b 49       		.uleb128 0x49
 1300 002c 13       		.uleb128 0x13
 1301 002d 00       		.byte	0
 1302 002e 00       		.byte	0
 1303 002f 04       		.uleb128 0x4
 1304 0030 24       		.uleb128 0x24
 1305 0031 00       		.byte	0
 1306 0032 0B       		.uleb128 0xb
 1307 0033 0B       		.uleb128 0xb
 1308 0034 3E       		.uleb128 0x3e
ARM GAS  /tmp/cc7hh7FW.s 			page 27


 1309 0035 0B       		.uleb128 0xb
 1310 0036 03       		.uleb128 0x3
 1311 0037 0E       		.uleb128 0xe
 1312 0038 00       		.byte	0
 1313 0039 00       		.byte	0
 1314 003a 05       		.uleb128 0x5
 1315 003b 0F       		.uleb128 0xf
 1316 003c 00       		.byte	0
 1317 003d 0B       		.uleb128 0xb
 1318 003e 0B       		.uleb128 0xb
 1319 003f 00       		.byte	0
 1320 0040 00       		.byte	0
 1321 0041 06       		.uleb128 0x6
 1322 0042 26       		.uleb128 0x26
 1323 0043 00       		.byte	0
 1324 0044 49       		.uleb128 0x49
 1325 0045 13       		.uleb128 0x13
 1326 0046 00       		.byte	0
 1327 0047 00       		.byte	0
 1328 0048 07       		.uleb128 0x7
 1329 0049 0F       		.uleb128 0xf
 1330 004a 00       		.byte	0
 1331 004b 0B       		.uleb128 0xb
 1332 004c 0B       		.uleb128 0xb
 1333 004d 49       		.uleb128 0x49
 1334 004e 13       		.uleb128 0x13
 1335 004f 00       		.byte	0
 1336 0050 00       		.byte	0
 1337 0051 08       		.uleb128 0x8
 1338 0052 13       		.uleb128 0x13
 1339 0053 00       		.byte	0
 1340 0054 03       		.uleb128 0x3
 1341 0055 0E       		.uleb128 0xe
 1342 0056 3C       		.uleb128 0x3c
 1343 0057 0C       		.uleb128 0xc
 1344 0058 00       		.byte	0
 1345 0059 00       		.byte	0
 1346 005a 09       		.uleb128 0x9
 1347 005b 15       		.uleb128 0x15
 1348 005c 01       		.byte	0x1
 1349 005d 27       		.uleb128 0x27
 1350 005e 0C       		.uleb128 0xc
 1351 005f 49       		.uleb128 0x49
 1352 0060 13       		.uleb128 0x13
 1353 0061 01       		.uleb128 0x1
 1354 0062 13       		.uleb128 0x13
 1355 0063 00       		.byte	0
 1356 0064 00       		.byte	0
 1357 0065 0A       		.uleb128 0xa
 1358 0066 05       		.uleb128 0x5
 1359 0067 00       		.byte	0
 1360 0068 49       		.uleb128 0x49
 1361 0069 13       		.uleb128 0x13
 1362 006a 00       		.byte	0
 1363 006b 00       		.byte	0
 1364 006c 0B       		.uleb128 0xb
 1365 006d 26       		.uleb128 0x26
ARM GAS  /tmp/cc7hh7FW.s 			page 28


 1366 006e 00       		.byte	0
 1367 006f 00       		.byte	0
 1368 0070 00       		.byte	0
 1369 0071 0C       		.uleb128 0xc
 1370 0072 13       		.uleb128 0x13
 1371 0073 01       		.byte	0x1
 1372 0074 03       		.uleb128 0x3
 1373 0075 0E       		.uleb128 0xe
 1374 0076 0B       		.uleb128 0xb
 1375 0077 0B       		.uleb128 0xb
 1376 0078 3A       		.uleb128 0x3a
 1377 0079 0B       		.uleb128 0xb
 1378 007a 3B       		.uleb128 0x3b
 1379 007b 0B       		.uleb128 0xb
 1380 007c 39       		.uleb128 0x39
 1381 007d 0B       		.uleb128 0xb
 1382 007e 01       		.uleb128 0x1
 1383 007f 13       		.uleb128 0x13
 1384 0080 00       		.byte	0
 1385 0081 00       		.byte	0
 1386 0082 0D       		.uleb128 0xd
 1387 0083 0D       		.uleb128 0xd
 1388 0084 00       		.byte	0
 1389 0085 03       		.uleb128 0x3
 1390 0086 0E       		.uleb128 0xe
 1391 0087 3A       		.uleb128 0x3a
 1392 0088 0B       		.uleb128 0xb
 1393 0089 3B       		.uleb128 0x3b
 1394 008a 0B       		.uleb128 0xb
 1395 008b 39       		.uleb128 0x39
 1396 008c 0B       		.uleb128 0xb
 1397 008d 49       		.uleb128 0x49
 1398 008e 13       		.uleb128 0x13
 1399 008f 38       		.uleb128 0x38
 1400 0090 0A       		.uleb128 0xa
 1401 0091 00       		.byte	0
 1402 0092 00       		.byte	0
 1403 0093 0E       		.uleb128 0xe
 1404 0094 17       		.uleb128 0x17
 1405 0095 00       		.byte	0
 1406 0096 03       		.uleb128 0x3
 1407 0097 0E       		.uleb128 0xe
 1408 0098 3C       		.uleb128 0x3c
 1409 0099 0C       		.uleb128 0xc
 1410 009a 00       		.byte	0
 1411 009b 00       		.byte	0
 1412 009c 0F       		.uleb128 0xf
 1413 009d 17       		.uleb128 0x17
 1414 009e 01       		.byte	0x1
 1415 009f 03       		.uleb128 0x3
 1416 00a0 0E       		.uleb128 0xe
 1417 00a1 0B       		.uleb128 0xb
 1418 00a2 0B       		.uleb128 0xb
 1419 00a3 3A       		.uleb128 0x3a
 1420 00a4 0B       		.uleb128 0xb
 1421 00a5 3B       		.uleb128 0x3b
 1422 00a6 05       		.uleb128 0x5
ARM GAS  /tmp/cc7hh7FW.s 			page 29


 1423 00a7 39       		.uleb128 0x39
 1424 00a8 0B       		.uleb128 0xb
 1425 00a9 01       		.uleb128 0x1
 1426 00aa 13       		.uleb128 0x13
 1427 00ab 00       		.byte	0
 1428 00ac 00       		.byte	0
 1429 00ad 10       		.uleb128 0x10
 1430 00ae 0D       		.uleb128 0xd
 1431 00af 00       		.byte	0
 1432 00b0 03       		.uleb128 0x3
 1433 00b1 08       		.uleb128 0x8
 1434 00b2 3A       		.uleb128 0x3a
 1435 00b3 0B       		.uleb128 0xb
 1436 00b4 3B       		.uleb128 0x3b
 1437 00b5 05       		.uleb128 0x5
 1438 00b6 39       		.uleb128 0x39
 1439 00b7 0B       		.uleb128 0xb
 1440 00b8 49       		.uleb128 0x49
 1441 00b9 13       		.uleb128 0x13
 1442 00ba 00       		.byte	0
 1443 00bb 00       		.byte	0
 1444 00bc 11       		.uleb128 0x11
 1445 00bd 13       		.uleb128 0x13
 1446 00be 01       		.byte	0x1
 1447 00bf 0B       		.uleb128 0xb
 1448 00c0 0B       		.uleb128 0xb
 1449 00c1 3A       		.uleb128 0x3a
 1450 00c2 0B       		.uleb128 0xb
 1451 00c3 3B       		.uleb128 0x3b
 1452 00c4 05       		.uleb128 0x5
 1453 00c5 39       		.uleb128 0x39
 1454 00c6 0B       		.uleb128 0xb
 1455 00c7 01       		.uleb128 0x1
 1456 00c8 13       		.uleb128 0x13
 1457 00c9 00       		.byte	0
 1458 00ca 00       		.byte	0
 1459 00cb 12       		.uleb128 0x12
 1460 00cc 0D       		.uleb128 0xd
 1461 00cd 00       		.byte	0
 1462 00ce 03       		.uleb128 0x3
 1463 00cf 0E       		.uleb128 0xe
 1464 00d0 3A       		.uleb128 0x3a
 1465 00d1 0B       		.uleb128 0xb
 1466 00d2 3B       		.uleb128 0x3b
 1467 00d3 05       		.uleb128 0x5
 1468 00d4 39       		.uleb128 0x39
 1469 00d5 0B       		.uleb128 0xb
 1470 00d6 49       		.uleb128 0x49
 1471 00d7 13       		.uleb128 0x13
 1472 00d8 38       		.uleb128 0x38
 1473 00d9 0A       		.uleb128 0xa
 1474 00da 00       		.byte	0
 1475 00db 00       		.byte	0
 1476 00dc 13       		.uleb128 0x13
 1477 00dd 0D       		.uleb128 0xd
 1478 00de 00       		.byte	0
 1479 00df 03       		.uleb128 0x3
ARM GAS  /tmp/cc7hh7FW.s 			page 30


 1480 00e0 08       		.uleb128 0x8
 1481 00e1 3A       		.uleb128 0x3a
 1482 00e2 0B       		.uleb128 0xb
 1483 00e3 3B       		.uleb128 0x3b
 1484 00e4 05       		.uleb128 0x5
 1485 00e5 39       		.uleb128 0x39
 1486 00e6 0B       		.uleb128 0xb
 1487 00e7 49       		.uleb128 0x49
 1488 00e8 13       		.uleb128 0x13
 1489 00e9 38       		.uleb128 0x38
 1490 00ea 0A       		.uleb128 0xa
 1491 00eb 00       		.byte	0
 1492 00ec 00       		.byte	0
 1493 00ed 14       		.uleb128 0x14
 1494 00ee 16       		.uleb128 0x16
 1495 00ef 00       		.byte	0
 1496 00f0 03       		.uleb128 0x3
 1497 00f1 0E       		.uleb128 0xe
 1498 00f2 3A       		.uleb128 0x3a
 1499 00f3 0B       		.uleb128 0xb
 1500 00f4 3B       		.uleb128 0x3b
 1501 00f5 05       		.uleb128 0x5
 1502 00f6 39       		.uleb128 0x39
 1503 00f7 0B       		.uleb128 0xb
 1504 00f8 49       		.uleb128 0x49
 1505 00f9 13       		.uleb128 0x13
 1506 00fa 00       		.byte	0
 1507 00fb 00       		.byte	0
 1508 00fc 15       		.uleb128 0x15
 1509 00fd 13       		.uleb128 0x13
 1510 00fe 01       		.byte	0x1
 1511 00ff 0B       		.uleb128 0xb
 1512 0100 0B       		.uleb128 0xb
 1513 0101 3A       		.uleb128 0x3a
 1514 0102 0B       		.uleb128 0xb
 1515 0103 3B       		.uleb128 0x3b
 1516 0104 0B       		.uleb128 0xb
 1517 0105 39       		.uleb128 0x39
 1518 0106 0B       		.uleb128 0xb
 1519 0107 01       		.uleb128 0x1
 1520 0108 13       		.uleb128 0x13
 1521 0109 00       		.byte	0
 1522 010a 00       		.byte	0
 1523 010b 16       		.uleb128 0x16
 1524 010c 01       		.uleb128 0x1
 1525 010d 01       		.byte	0x1
 1526 010e 49       		.uleb128 0x49
 1527 010f 13       		.uleb128 0x13
 1528 0110 01       		.uleb128 0x1
 1529 0111 13       		.uleb128 0x13
 1530 0112 00       		.byte	0
 1531 0113 00       		.byte	0
 1532 0114 17       		.uleb128 0x17
 1533 0115 21       		.uleb128 0x21
 1534 0116 00       		.byte	0
 1535 0117 00       		.byte	0
 1536 0118 00       		.byte	0
ARM GAS  /tmp/cc7hh7FW.s 			page 31


 1537 0119 18       		.uleb128 0x18
 1538 011a 34       		.uleb128 0x34
 1539 011b 00       		.byte	0
 1540 011c 03       		.uleb128 0x3
 1541 011d 0E       		.uleb128 0xe
 1542 011e 3A       		.uleb128 0x3a
 1543 011f 0B       		.uleb128 0xb
 1544 0120 3B       		.uleb128 0x3b
 1545 0121 0B       		.uleb128 0xb
 1546 0122 39       		.uleb128 0x39
 1547 0123 0B       		.uleb128 0xb
 1548 0124 49       		.uleb128 0x49
 1549 0125 13       		.uleb128 0x13
 1550 0126 3F       		.uleb128 0x3f
 1551 0127 0C       		.uleb128 0xc
 1552 0128 3C       		.uleb128 0x3c
 1553 0129 0C       		.uleb128 0xc
 1554 012a 00       		.byte	0
 1555 012b 00       		.byte	0
 1556 012c 19       		.uleb128 0x19
 1557 012d 2E       		.uleb128 0x2e
 1558 012e 01       		.byte	0x1
 1559 012f 3F       		.uleb128 0x3f
 1560 0130 0C       		.uleb128 0xc
 1561 0131 03       		.uleb128 0x3
 1562 0132 0E       		.uleb128 0xe
 1563 0133 3A       		.uleb128 0x3a
 1564 0134 0B       		.uleb128 0xb
 1565 0135 3B       		.uleb128 0x3b
 1566 0136 0B       		.uleb128 0xb
 1567 0137 39       		.uleb128 0x39
 1568 0138 0B       		.uleb128 0xb
 1569 0139 27       		.uleb128 0x27
 1570 013a 0C       		.uleb128 0xc
 1571 013b 49       		.uleb128 0x49
 1572 013c 13       		.uleb128 0x13
 1573 013d 3C       		.uleb128 0x3c
 1574 013e 0C       		.uleb128 0xc
 1575 013f 01       		.uleb128 0x1
 1576 0140 13       		.uleb128 0x13
 1577 0141 00       		.byte	0
 1578 0142 00       		.byte	0
 1579 0143 1A       		.uleb128 0x1a
 1580 0144 2E       		.uleb128 0x2e
 1581 0145 01       		.byte	0x1
 1582 0146 3F       		.uleb128 0x3f
 1583 0147 0C       		.uleb128 0xc
 1584 0148 03       		.uleb128 0x3
 1585 0149 0E       		.uleb128 0xe
 1586 014a 3A       		.uleb128 0x3a
 1587 014b 0B       		.uleb128 0xb
 1588 014c 3B       		.uleb128 0x3b
 1589 014d 0B       		.uleb128 0xb
 1590 014e 39       		.uleb128 0x39
 1591 014f 0B       		.uleb128 0xb
 1592 0150 27       		.uleb128 0x27
 1593 0151 0C       		.uleb128 0xc
ARM GAS  /tmp/cc7hh7FW.s 			page 32


 1594 0152 49       		.uleb128 0x49
 1595 0153 13       		.uleb128 0x13
 1596 0154 11       		.uleb128 0x11
 1597 0155 01       		.uleb128 0x1
 1598 0156 12       		.uleb128 0x12
 1599 0157 01       		.uleb128 0x1
 1600 0158 40       		.uleb128 0x40
 1601 0159 06       		.uleb128 0x6
 1602 015a 9742     		.uleb128 0x2117
 1603 015c 0C       		.uleb128 0xc
 1604 015d 01       		.uleb128 0x1
 1605 015e 13       		.uleb128 0x13
 1606 015f 00       		.byte	0
 1607 0160 00       		.byte	0
 1608 0161 1B       		.uleb128 0x1b
 1609 0162 05       		.uleb128 0x5
 1610 0163 00       		.byte	0
 1611 0164 03       		.uleb128 0x3
 1612 0165 0E       		.uleb128 0xe
 1613 0166 3A       		.uleb128 0x3a
 1614 0167 0B       		.uleb128 0xb
 1615 0168 3B       		.uleb128 0x3b
 1616 0169 0B       		.uleb128 0xb
 1617 016a 39       		.uleb128 0x39
 1618 016b 0B       		.uleb128 0xb
 1619 016c 49       		.uleb128 0x49
 1620 016d 13       		.uleb128 0x13
 1621 016e 02       		.uleb128 0x2
 1622 016f 06       		.uleb128 0x6
 1623 0170 B742     		.uleb128 0x2137
 1624 0172 06       		.uleb128 0x6
 1625 0173 00       		.byte	0
 1626 0174 00       		.byte	0
 1627 0175 1C       		.uleb128 0x1c
 1628 0176 05       		.uleb128 0x5
 1629 0177 00       		.byte	0
 1630 0178 03       		.uleb128 0x3
 1631 0179 08       		.uleb128 0x8
 1632 017a 3A       		.uleb128 0x3a
 1633 017b 0B       		.uleb128 0xb
 1634 017c 3B       		.uleb128 0x3b
 1635 017d 0B       		.uleb128 0xb
 1636 017e 39       		.uleb128 0x39
 1637 017f 0B       		.uleb128 0xb
 1638 0180 49       		.uleb128 0x49
 1639 0181 13       		.uleb128 0x13
 1640 0182 02       		.uleb128 0x2
 1641 0183 06       		.uleb128 0x6
 1642 0184 B742     		.uleb128 0x2137
 1643 0186 06       		.uleb128 0x6
 1644 0187 00       		.byte	0
 1645 0188 00       		.byte	0
 1646 0189 1D       		.uleb128 0x1d
 1647 018a 34       		.uleb128 0x34
 1648 018b 00       		.byte	0
 1649 018c 03       		.uleb128 0x3
 1650 018d 0E       		.uleb128 0xe
ARM GAS  /tmp/cc7hh7FW.s 			page 33


 1651 018e 3A       		.uleb128 0x3a
 1652 018f 0B       		.uleb128 0xb
 1653 0190 3B       		.uleb128 0x3b
 1654 0191 0B       		.uleb128 0xb
 1655 0192 39       		.uleb128 0x39
 1656 0193 0B       		.uleb128 0xb
 1657 0194 49       		.uleb128 0x49
 1658 0195 13       		.uleb128 0x13
 1659 0196 02       		.uleb128 0x2
 1660 0197 06       		.uleb128 0x6
 1661 0198 B742     		.uleb128 0x2137
 1662 019a 06       		.uleb128 0x6
 1663 019b 00       		.byte	0
 1664 019c 00       		.byte	0
 1665 019d 1E       		.uleb128 0x1e
 1666 019e 1D       		.uleb128 0x1d
 1667 019f 01       		.byte	0x1
 1668 01a0 31       		.uleb128 0x31
 1669 01a1 13       		.uleb128 0x13
 1670 01a2 52       		.uleb128 0x52
 1671 01a3 01       		.uleb128 0x1
 1672 01a4 B842     		.uleb128 0x2138
 1673 01a6 0B       		.uleb128 0xb
 1674 01a7 55       		.uleb128 0x55
 1675 01a8 06       		.uleb128 0x6
 1676 01a9 58       		.uleb128 0x58
 1677 01aa 0B       		.uleb128 0xb
 1678 01ab 59       		.uleb128 0x59
 1679 01ac 0B       		.uleb128 0xb
 1680 01ad 57       		.uleb128 0x57
 1681 01ae 0B       		.uleb128 0xb
 1682 01af 01       		.uleb128 0x1
 1683 01b0 13       		.uleb128 0x13
 1684 01b1 00       		.byte	0
 1685 01b2 00       		.byte	0
 1686 01b3 1F       		.uleb128 0x1f
 1687 01b4 05       		.uleb128 0x5
 1688 01b5 00       		.byte	0
 1689 01b6 31       		.uleb128 0x31
 1690 01b7 13       		.uleb128 0x13
 1691 01b8 02       		.uleb128 0x2
 1692 01b9 06       		.uleb128 0x6
 1693 01ba B742     		.uleb128 0x2137
 1694 01bc 06       		.uleb128 0x6
 1695 01bd 00       		.byte	0
 1696 01be 00       		.byte	0
 1697 01bf 20       		.uleb128 0x20
 1698 01c0 0B       		.uleb128 0xb
 1699 01c1 01       		.byte	0x1
 1700 01c2 55       		.uleb128 0x55
 1701 01c3 06       		.uleb128 0x6
 1702 01c4 00       		.byte	0
 1703 01c5 00       		.byte	0
 1704 01c6 21       		.uleb128 0x21
 1705 01c7 34       		.uleb128 0x34
 1706 01c8 00       		.byte	0
 1707 01c9 31       		.uleb128 0x31
ARM GAS  /tmp/cc7hh7FW.s 			page 34


 1708 01ca 13       		.uleb128 0x13
 1709 01cb 00       		.byte	0
 1710 01cc 00       		.byte	0
 1711 01cd 22       		.uleb128 0x22
 1712 01ce 34       		.uleb128 0x34
 1713 01cf 00       		.byte	0
 1714 01d0 31       		.uleb128 0x31
 1715 01d1 13       		.uleb128 0x13
 1716 01d2 02       		.uleb128 0x2
 1717 01d3 06       		.uleb128 0x6
 1718 01d4 B742     		.uleb128 0x2137
 1719 01d6 06       		.uleb128 0x6
 1720 01d7 00       		.byte	0
 1721 01d8 00       		.byte	0
 1722 01d9 23       		.uleb128 0x23
 1723 01da 1D       		.uleb128 0x1d
 1724 01db 01       		.byte	0x1
 1725 01dc 31       		.uleb128 0x31
 1726 01dd 13       		.uleb128 0x13
 1727 01de 55       		.uleb128 0x55
 1728 01df 06       		.uleb128 0x6
 1729 01e0 58       		.uleb128 0x58
 1730 01e1 0B       		.uleb128 0xb
 1731 01e2 59       		.uleb128 0x59
 1732 01e3 0B       		.uleb128 0xb
 1733 01e4 57       		.uleb128 0x57
 1734 01e5 0B       		.uleb128 0xb
 1735 01e6 00       		.byte	0
 1736 01e7 00       		.byte	0
 1737 01e8 24       		.uleb128 0x24
 1738 01e9 05       		.uleb128 0x5
 1739 01ea 00       		.byte	0
 1740 01eb 31       		.uleb128 0x31
 1741 01ec 13       		.uleb128 0x13
 1742 01ed 00       		.byte	0
 1743 01ee 00       		.byte	0
 1744 01ef 25       		.uleb128 0x25
 1745 01f0 0B       		.uleb128 0xb
 1746 01f1 01       		.byte	0x1
 1747 01f2 31       		.uleb128 0x31
 1748 01f3 13       		.uleb128 0x13
 1749 01f4 55       		.uleb128 0x55
 1750 01f5 06       		.uleb128 0x6
 1751 01f6 01       		.uleb128 0x1
 1752 01f7 13       		.uleb128 0x13
 1753 01f8 00       		.byte	0
 1754 01f9 00       		.byte	0
 1755 01fa 26       		.uleb128 0x26
 1756 01fb 898201   		.uleb128 0x4109
 1757 01fe 01       		.byte	0x1
 1758 01ff 11       		.uleb128 0x11
 1759 0200 01       		.uleb128 0x1
 1760 0201 31       		.uleb128 0x31
 1761 0202 13       		.uleb128 0x13
 1762 0203 00       		.byte	0
 1763 0204 00       		.byte	0
 1764 0205 27       		.uleb128 0x27
ARM GAS  /tmp/cc7hh7FW.s 			page 35


 1765 0206 8A8201   		.uleb128 0x410a
 1766 0209 00       		.byte	0
 1767 020a 02       		.uleb128 0x2
 1768 020b 0A       		.uleb128 0xa
 1769 020c 9142     		.uleb128 0x2111
 1770 020e 0A       		.uleb128 0xa
 1771 020f 00       		.byte	0
 1772 0210 00       		.byte	0
 1773 0211 28       		.uleb128 0x28
 1774 0212 1D       		.uleb128 0x1d
 1775 0213 01       		.byte	0x1
 1776 0214 31       		.uleb128 0x31
 1777 0215 13       		.uleb128 0x13
 1778 0216 52       		.uleb128 0x52
 1779 0217 01       		.uleb128 0x1
 1780 0218 B842     		.uleb128 0x2138
 1781 021a 0B       		.uleb128 0xb
 1782 021b 55       		.uleb128 0x55
 1783 021c 06       		.uleb128 0x6
 1784 021d 58       		.uleb128 0x58
 1785 021e 0B       		.uleb128 0xb
 1786 021f 59       		.uleb128 0x59
 1787 0220 0B       		.uleb128 0xb
 1788 0221 57       		.uleb128 0x57
 1789 0222 0B       		.uleb128 0xb
 1790 0223 00       		.byte	0
 1791 0224 00       		.byte	0
 1792 0225 29       		.uleb128 0x29
 1793 0226 34       		.uleb128 0x34
 1794 0227 00       		.byte	0
 1795 0228 31       		.uleb128 0x31
 1796 0229 13       		.uleb128 0x13
 1797 022a 1C       		.uleb128 0x1c
 1798 022b 0B       		.uleb128 0xb
 1799 022c 00       		.byte	0
 1800 022d 00       		.byte	0
 1801 022e 2A       		.uleb128 0x2a
 1802 022f 34       		.uleb128 0x34
 1803 0230 00       		.byte	0
 1804 0231 03       		.uleb128 0x3
 1805 0232 08       		.uleb128 0x8
 1806 0233 3A       		.uleb128 0x3a
 1807 0234 0B       		.uleb128 0xb
 1808 0235 3B       		.uleb128 0x3b
 1809 0236 0B       		.uleb128 0xb
 1810 0237 39       		.uleb128 0x39
 1811 0238 0B       		.uleb128 0xb
 1812 0239 49       		.uleb128 0x49
 1813 023a 13       		.uleb128 0x13
 1814 023b 00       		.byte	0
 1815 023c 00       		.byte	0
 1816 023d 2B       		.uleb128 0x2b
 1817 023e 0B       		.uleb128 0xb
 1818 023f 01       		.byte	0x1
 1819 0240 55       		.uleb128 0x55
 1820 0241 06       		.uleb128 0x6
 1821 0242 01       		.uleb128 0x1
ARM GAS  /tmp/cc7hh7FW.s 			page 36


 1822 0243 13       		.uleb128 0x13
 1823 0244 00       		.byte	0
 1824 0245 00       		.byte	0
 1825 0246 2C       		.uleb128 0x2c
 1826 0247 0B       		.uleb128 0xb
 1827 0248 01       		.byte	0x1
 1828 0249 11       		.uleb128 0x11
 1829 024a 01       		.uleb128 0x1
 1830 024b 12       		.uleb128 0x12
 1831 024c 01       		.uleb128 0x1
 1832 024d 01       		.uleb128 0x1
 1833 024e 13       		.uleb128 0x13
 1834 024f 00       		.byte	0
 1835 0250 00       		.byte	0
 1836 0251 2D       		.uleb128 0x2d
 1837 0252 34       		.uleb128 0x34
 1838 0253 00       		.byte	0
 1839 0254 03       		.uleb128 0x3
 1840 0255 08       		.uleb128 0x8
 1841 0256 3A       		.uleb128 0x3a
 1842 0257 0B       		.uleb128 0xb
 1843 0258 3B       		.uleb128 0x3b
 1844 0259 0B       		.uleb128 0xb
 1845 025a 39       		.uleb128 0x39
 1846 025b 0B       		.uleb128 0xb
 1847 025c 49       		.uleb128 0x49
 1848 025d 13       		.uleb128 0x13
 1849 025e 02       		.uleb128 0x2
 1850 025f 06       		.uleb128 0x6
 1851 0260 B742     		.uleb128 0x2137
 1852 0262 06       		.uleb128 0x6
 1853 0263 00       		.byte	0
 1854 0264 00       		.byte	0
 1855 0265 2E       		.uleb128 0x2e
 1856 0266 898201   		.uleb128 0x4109
 1857 0269 01       		.byte	0x1
 1858 026a 11       		.uleb128 0x11
 1859 026b 01       		.uleb128 0x1
 1860 026c 31       		.uleb128 0x31
 1861 026d 13       		.uleb128 0x13
 1862 026e 01       		.uleb128 0x1
 1863 026f 13       		.uleb128 0x13
 1864 0270 00       		.byte	0
 1865 0271 00       		.byte	0
 1866 0272 2F       		.uleb128 0x2f
 1867 0273 2E       		.uleb128 0x2e
 1868 0274 01       		.byte	0x1
 1869 0275 03       		.uleb128 0x3
 1870 0276 0E       		.uleb128 0xe
 1871 0277 3A       		.uleb128 0x3a
 1872 0278 0B       		.uleb128 0xb
 1873 0279 3B       		.uleb128 0x3b
 1874 027a 0B       		.uleb128 0xb
 1875 027b 39       		.uleb128 0x39
 1876 027c 0B       		.uleb128 0xb
 1877 027d 27       		.uleb128 0x27
 1878 027e 0C       		.uleb128 0xc
ARM GAS  /tmp/cc7hh7FW.s 			page 37


 1879 027f 49       		.uleb128 0x49
 1880 0280 13       		.uleb128 0x13
 1881 0281 20       		.uleb128 0x20
 1882 0282 0B       		.uleb128 0xb
 1883 0283 00       		.byte	0
 1884 0284 00       		.byte	0
 1885 0285 30       		.uleb128 0x30
 1886 0286 05       		.uleb128 0x5
 1887 0287 00       		.byte	0
 1888 0288 03       		.uleb128 0x3
 1889 0289 0E       		.uleb128 0xe
 1890 028a 3A       		.uleb128 0x3a
 1891 028b 0B       		.uleb128 0xb
 1892 028c 3B       		.uleb128 0x3b
 1893 028d 0B       		.uleb128 0xb
 1894 028e 39       		.uleb128 0x39
 1895 028f 0B       		.uleb128 0xb
 1896 0290 49       		.uleb128 0x49
 1897 0291 13       		.uleb128 0x13
 1898 0292 00       		.byte	0
 1899 0293 00       		.byte	0
 1900 0294 31       		.uleb128 0x31
 1901 0295 05       		.uleb128 0x5
 1902 0296 00       		.byte	0
 1903 0297 03       		.uleb128 0x3
 1904 0298 08       		.uleb128 0x8
 1905 0299 3A       		.uleb128 0x3a
 1906 029a 0B       		.uleb128 0xb
 1907 029b 3B       		.uleb128 0x3b
 1908 029c 0B       		.uleb128 0xb
 1909 029d 39       		.uleb128 0x39
 1910 029e 0B       		.uleb128 0xb
 1911 029f 49       		.uleb128 0x49
 1912 02a0 13       		.uleb128 0x13
 1913 02a1 00       		.byte	0
 1914 02a2 00       		.byte	0
 1915 02a3 32       		.uleb128 0x32
 1916 02a4 34       		.uleb128 0x34
 1917 02a5 00       		.byte	0
 1918 02a6 03       		.uleb128 0x3
 1919 02a7 0E       		.uleb128 0xe
 1920 02a8 3A       		.uleb128 0x3a
 1921 02a9 0B       		.uleb128 0xb
 1922 02aa 3B       		.uleb128 0x3b
 1923 02ab 0B       		.uleb128 0xb
 1924 02ac 39       		.uleb128 0x39
 1925 02ad 0B       		.uleb128 0xb
 1926 02ae 49       		.uleb128 0x49
 1927 02af 13       		.uleb128 0x13
 1928 02b0 00       		.byte	0
 1929 02b1 00       		.byte	0
 1930 02b2 33       		.uleb128 0x33
 1931 02b3 0B       		.uleb128 0xb
 1932 02b4 01       		.byte	0x1
 1933 02b5 01       		.uleb128 0x1
 1934 02b6 13       		.uleb128 0x13
 1935 02b7 00       		.byte	0
ARM GAS  /tmp/cc7hh7FW.s 			page 38


 1936 02b8 00       		.byte	0
 1937 02b9 34       		.uleb128 0x34
 1938 02ba 0B       		.uleb128 0xb
 1939 02bb 01       		.byte	0x1
 1940 02bc 00       		.byte	0
 1941 02bd 00       		.byte	0
 1942 02be 00       		.byte	0
 1943              		.section	.debug_loc,"",%progbits
 1944              	.Ldebug_loc0:
 1945              	.LLST0:
 1946 0000 00000000 		.4byte	.LFB12
 1947 0004 02000000 		.4byte	.LCFI0
 1948 0008 0200     		.2byte	0x2
 1949 000a 7D       		.byte	0x7d
 1950 000b 00       		.sleb128 0
 1951 000c 02000000 		.4byte	.LCFI0
 1952 0010 4E000000 		.4byte	.LFE12
 1953 0014 0200     		.2byte	0x2
 1954 0016 7D       		.byte	0x7d
 1955 0017 18       		.sleb128 24
 1956 0018 00000000 		.4byte	0
 1957 001c 00000000 		.4byte	0
 1958              	.LVUS1:
 1959 0020 00       		.uleb128 0
 1960 0021 00       		.uleb128 .LVU14
 1961 0022 00       		.uleb128 .LVU14
 1962 0023 00       		.uleb128 0
 1963              	.LLST1:
 1964 0024 00000000 		.4byte	.LVL0
 1965 0028 0C000000 		.4byte	.LVL4
 1966 002c 0100     		.2byte	0x1
 1967 002e 50       		.byte	0x50
 1968 002f 0C000000 		.4byte	.LVL4
 1969 0033 4E000000 		.4byte	.LFE12
 1970 0037 0100     		.2byte	0x1
 1971 0039 57       		.byte	0x57
 1972 003a 00000000 		.4byte	0
 1973 003e 00000000 		.4byte	0
 1974              	.LVUS2:
 1975 0042 00       		.uleb128 0
 1976 0043 00       		.uleb128 .LVU14
 1977 0044 00       		.uleb128 .LVU14
 1978 0045 00       		.uleb128 0
 1979              	.LLST2:
 1980 0046 00000000 		.4byte	.LVL0
 1981 004a 0C000000 		.4byte	.LVL4
 1982 004e 0100     		.2byte	0x1
 1983 0050 51       		.byte	0x51
 1984 0051 0C000000 		.4byte	.LVL4
 1985 0055 4E000000 		.4byte	.LFE12
 1986 0059 0100     		.2byte	0x1
 1987 005b 56       		.byte	0x56
 1988 005c 00000000 		.4byte	0
 1989 0060 00000000 		.4byte	0
 1990              	.LVUS3:
 1991 0064 00       		.uleb128 0
 1992 0065 00       		.uleb128 .LVU14
ARM GAS  /tmp/cc7hh7FW.s 			page 39


 1993 0066 00       		.uleb128 .LVU14
 1994 0067 00       		.uleb128 0
 1995              	.LLST3:
 1996 0068 00000000 		.4byte	.LVL0
 1997 006c 0C000000 		.4byte	.LVL4
 1998 0070 0100     		.2byte	0x1
 1999 0072 52       		.byte	0x52
 2000 0073 0C000000 		.4byte	.LVL4
 2001 0077 4E000000 		.4byte	.LFE12
 2002 007b 0100     		.2byte	0x1
 2003 007d 55       		.byte	0x55
 2004 007e 00000000 		.4byte	0
 2005 0082 00000000 		.4byte	0
 2006              	.LVUS4:
 2007 0086 02       		.uleb128 .LVU2
 2008 0087 00       		.uleb128 .LVU14
 2009 0088 00       		.uleb128 .LVU14
 2010 0089 00       		.uleb128 0
 2011              	.LLST4:
 2012 008a 00000000 		.4byte	.LVL0
 2013 008e 0C000000 		.4byte	.LVL4
 2014 0092 0100     		.2byte	0x1
 2015 0094 50       		.byte	0x50
 2016 0095 0C000000 		.4byte	.LVL4
 2017 0099 4E000000 		.4byte	.LFE12
 2018 009d 0100     		.2byte	0x1
 2019 009f 57       		.byte	0x57
 2020 00a0 00000000 		.4byte	0
 2021 00a4 00000000 		.4byte	0
 2022              	.LVUS5:
 2023 00a8 00       		.uleb128 .LVU5
 2024 00a9 00       		.uleb128 .LVU14
 2025              	.LLST5:
 2026 00aa 04000000 		.4byte	.LVL1
 2027 00ae 0C000000 		.4byte	.LVL4
 2028 00b2 0100     		.2byte	0x1
 2029 00b4 54       		.byte	0x54
 2030 00b5 00000000 		.4byte	0
 2031 00b9 00000000 		.4byte	0
 2032              	.LVUS6:
 2033 00bd 00       		.uleb128 .LVU6
 2034 00be 00       		.uleb128 .LVU14
 2035 00bf 00       		.uleb128 .LVU14
 2036 00c0 04       		.uleb128 .LVU28
 2037 00c1 00       		.uleb128 .LVU33
 2038 00c2 00       		.uleb128 .LVU38
 2039              	.LLST6:
 2040 00c3 08000000 		.4byte	.LVL2
 2041 00c7 0C000000 		.4byte	.LVL4
 2042 00cb 0100     		.2byte	0x1
 2043 00cd 51       		.byte	0x51
 2044 00ce 0C000000 		.4byte	.LVL4
 2045 00d2 1C000000 		.4byte	.LVL8
 2046 00d6 0100     		.2byte	0x1
 2047 00d8 56       		.byte	0x56
 2048 00d9 24000000 		.4byte	.LVL10
 2049 00dd 28000000 		.4byte	.LVL12
ARM GAS  /tmp/cc7hh7FW.s 			page 40


 2050 00e1 0100     		.2byte	0x1
 2051 00e3 56       		.byte	0x56
 2052 00e4 00000000 		.4byte	0
 2053 00e8 00000000 		.4byte	0
 2054              	.LVUS7:
 2055 00ec 00       		.uleb128 .LVU6
 2056 00ed 04       		.uleb128 .LVU28
 2057 00ee 00       		.uleb128 .LVU33
 2058 00ef 00       		.uleb128 .LVU38
 2059              	.LLST7:
 2060 00f0 08000000 		.4byte	.LVL2
 2061 00f4 1C000000 		.4byte	.LVL8
 2062 00f8 0200     		.2byte	0x2
 2063 00fa 30       		.byte	0x30
 2064 00fb 9F       		.byte	0x9f
 2065 00fc 24000000 		.4byte	.LVL10
 2066 0100 28000000 		.4byte	.LVL12
 2067 0104 0200     		.2byte	0x2
 2068 0106 30       		.byte	0x30
 2069 0107 9F       		.byte	0x9f
 2070 0108 00000000 		.4byte	0
 2071 010c 00000000 		.4byte	0
 2072              	.LVUS8:
 2073 0110 00       		.uleb128 .LVU7
 2074 0111 00       		.uleb128 .LVU14
 2075 0112 00       		.uleb128 .LVU14
 2076 0113 04       		.uleb128 .LVU28
 2077 0114 00       		.uleb128 .LVU33
 2078 0115 00       		.uleb128 .LVU38
 2079              	.LLST8:
 2080 0116 0A000000 		.4byte	.LVL3
 2081 011a 0C000000 		.4byte	.LVL4
 2082 011e 0100     		.2byte	0x1
 2083 0120 52       		.byte	0x52
 2084 0121 0C000000 		.4byte	.LVL4
 2085 0125 1C000000 		.4byte	.LVL8
 2086 0129 0100     		.2byte	0x1
 2087 012b 55       		.byte	0x55
 2088 012c 24000000 		.4byte	.LVL10
 2089 0130 28000000 		.4byte	.LVL12
 2090 0134 0100     		.2byte	0x1
 2091 0136 55       		.byte	0x55
 2092 0137 00000000 		.4byte	0
 2093 013b 00000000 		.4byte	0
 2094              	.LVUS9:
 2095 013f 03       		.uleb128 .LVU10
 2096 0140 00       		.uleb128 .LVU14
 2097              	.LLST9:
 2098 0141 0A000000 		.4byte	.LVL3
 2099 0145 0C000000 		.4byte	.LVL4
 2100 0149 0100     		.2byte	0x1
 2101 014b 54       		.byte	0x54
 2102 014c 00000000 		.4byte	0
 2103 0150 00000000 		.4byte	0
 2104              	.LVUS10:
 2105 0154 04       		.uleb128 .LVU11
 2106 0155 00       		.uleb128 .LVU14
ARM GAS  /tmp/cc7hh7FW.s 			page 41


 2107              	.LLST10:
 2108 0156 0A000000 		.4byte	.LVL3
 2109 015a 0C000000 		.4byte	.LVL4
 2110 015e 0100     		.2byte	0x1
 2111 0160 54       		.byte	0x54
 2112 0161 00000000 		.4byte	0
 2113 0165 00000000 		.4byte	0
 2114              	.LVUS11:
 2115 0169 05       		.uleb128 .LVU12
 2116 016a 00       		.uleb128 .LVU29
 2117 016b 00       		.uleb128 .LVU33
 2118 016c 05       		.uleb128 .LVU46
 2119 016d 05       		.uleb128 .LVU46
 2120 016e 00       		.uleb128 0
 2121              	.LLST11:
 2122 016f 0A000000 		.4byte	.LVL3
 2123 0173 1E000000 		.4byte	.LVL9
 2124 0177 0200     		.2byte	0x2
 2125 0179 31       		.byte	0x31
 2126 017a 9F       		.byte	0x9f
 2127 017b 24000000 		.4byte	.LVL10
 2128 017f 2A000000 		.4byte	.LVL13
 2129 0183 0200     		.2byte	0x2
 2130 0185 31       		.byte	0x31
 2131 0186 9F       		.byte	0x9f
 2132 0187 2A000000 		.4byte	.LVL13
 2133 018b 4E000000 		.4byte	.LFE12
 2134 018f 0200     		.2byte	0x2
 2135 0191 30       		.byte	0x30
 2136 0192 9F       		.byte	0x9f
 2137 0193 00000000 		.4byte	0
 2138 0197 00000000 		.4byte	0
 2139              	.LVUS12:
 2140 019b 00       		.uleb128 .LVU17
 2141 019c 00       		.uleb128 .LVU20
 2142              	.LLST12:
 2143 019d 0E000000 		.4byte	.LVL5
 2144 01a1 15000000 		.4byte	.LVL6-1
 2145 01a5 0100     		.2byte	0x1
 2146 01a7 50       		.byte	0x50
 2147 01a8 00000000 		.4byte	0
 2148 01ac 00000000 		.4byte	0
 2149              	.LVUS13:
 2150 01b0 00       		.uleb128 .LVU14
 2151 01b1 04       		.uleb128 .LVU28
 2152 01b2 00       		.uleb128 .LVU33
 2153 01b3 00       		.uleb128 .LVU38
 2154              	.LLST13:
 2155 01b4 0C000000 		.4byte	.LVL4
 2156 01b8 1C000000 		.4byte	.LVL8
 2157 01bc 0100     		.2byte	0x1
 2158 01be 54       		.byte	0x54
 2159 01bf 24000000 		.4byte	.LVL10
 2160 01c3 28000000 		.4byte	.LVL12
 2161 01c7 0100     		.2byte	0x1
 2162 01c9 54       		.byte	0x54
 2163 01ca 00000000 		.4byte	0
ARM GAS  /tmp/cc7hh7FW.s 			page 42


 2164 01ce 00000000 		.4byte	0
 2165              	.LVUS14:
 2166 01d2 02       		.uleb128 .LVU23
 2167 01d3 04       		.uleb128 .LVU28
 2168              	.LLST14:
 2169 01d4 18000000 		.4byte	.LVL7
 2170 01d8 1C000000 		.4byte	.LVL8
 2171 01dc 0100     		.2byte	0x1
 2172 01de 55       		.byte	0x55
 2173 01df 00000000 		.4byte	0
 2174 01e3 00000000 		.4byte	0
 2175              	.LVUS15:
 2176 01e7 00       		.uleb128 .LVU41
 2177 01e8 00       		.uleb128 .LVU48
 2178 01e9 00       		.uleb128 .LVU68
 2179 01ea 00       		.uleb128 0
 2180              	.LLST15:
 2181 01eb 2A000000 		.4byte	.LVL13
 2182 01ef 2C000000 		.4byte	.LVL14
 2183 01f3 0100     		.2byte	0x1
 2184 01f5 54       		.byte	0x54
 2185 01f6 4A000000 		.4byte	.LVL21
 2186 01fa 4E000000 		.4byte	.LFE12
 2187 01fe 0100     		.2byte	0x1
 2188 0200 54       		.byte	0x54
 2189 0201 00000000 		.4byte	0
 2190 0205 00000000 		.4byte	0
 2191              	.LVUS16:
 2192 0209 00       		.uleb128 .LVU41
 2193 020a 03       		.uleb128 .LVU61
 2194 020b 00       		.uleb128 .LVU62
 2195 020c 00       		.uleb128 0
 2196              	.LLST16:
 2197 020d 2A000000 		.4byte	.LVL13
 2198 0211 42000000 		.4byte	.LVL18
 2199 0215 0100     		.2byte	0x1
 2200 0217 56       		.byte	0x56
 2201 0218 46000000 		.4byte	.LVL19
 2202 021c 4E000000 		.4byte	.LFE12
 2203 0220 0100     		.2byte	0x1
 2204 0222 56       		.byte	0x56
 2205 0223 00000000 		.4byte	0
 2206 0227 00000000 		.4byte	0
 2207              	.LVUS17:
 2208 022b 00       		.uleb128 .LVU41
 2209 022c 03       		.uleb128 .LVU61
 2210 022d 00       		.uleb128 .LVU62
 2211 022e 00       		.uleb128 0
 2212              	.LLST17:
 2213 022f 2A000000 		.4byte	.LVL13
 2214 0233 42000000 		.4byte	.LVL18
 2215 0237 0200     		.2byte	0x2
 2216 0239 31       		.byte	0x31
 2217 023a 9F       		.byte	0x9f
 2218 023b 46000000 		.4byte	.LVL19
 2219 023f 4E000000 		.4byte	.LFE12
 2220 0243 0200     		.2byte	0x2
ARM GAS  /tmp/cc7hh7FW.s 			page 43


 2221 0245 31       		.byte	0x31
 2222 0246 9F       		.byte	0x9f
 2223 0247 00000000 		.4byte	0
 2224 024b 00000000 		.4byte	0
 2225              	.LVUS18:
 2226 024f 00       		.uleb128 .LVU41
 2227 0250 03       		.uleb128 .LVU61
 2228 0251 00       		.uleb128 .LVU62
 2229 0252 00       		.uleb128 0
 2230              	.LLST18:
 2231 0253 2A000000 		.4byte	.LVL13
 2232 0257 42000000 		.4byte	.LVL18
 2233 025b 0100     		.2byte	0x1
 2234 025d 55       		.byte	0x55
 2235 025e 46000000 		.4byte	.LVL19
 2236 0262 4E000000 		.4byte	.LFE12
 2237 0266 0100     		.2byte	0x1
 2238 0268 55       		.byte	0x55
 2239 0269 00000000 		.4byte	0
 2240 026d 00000000 		.4byte	0
 2241              	.LVUS19:
 2242 0271 03       		.uleb128 .LVU44
 2243 0272 00       		.uleb128 .LVU48
 2244 0273 00       		.uleb128 .LVU68
 2245 0274 00       		.uleb128 0
 2246              	.LLST19:
 2247 0275 2A000000 		.4byte	.LVL13
 2248 0279 2C000000 		.4byte	.LVL14
 2249 027d 0100     		.2byte	0x1
 2250 027f 54       		.byte	0x54
 2251 0280 4A000000 		.4byte	.LVL21
 2252 0284 4E000000 		.4byte	.LFE12
 2253 0288 0100     		.2byte	0x1
 2254 028a 54       		.byte	0x54
 2255 028b 00000000 		.4byte	0
 2256 028f 00000000 		.4byte	0
 2257              	.LVUS20:
 2258 0293 04       		.uleb128 .LVU45
 2259 0294 00       		.uleb128 .LVU48
 2260 0295 00       		.uleb128 .LVU68
 2261 0296 00       		.uleb128 0
 2262              	.LLST20:
 2263 0297 2A000000 		.4byte	.LVL13
 2264 029b 2C000000 		.4byte	.LVL14
 2265 029f 0100     		.2byte	0x1
 2266 02a1 54       		.byte	0x54
 2267 02a2 4A000000 		.4byte	.LVL21
 2268 02a6 4E000000 		.4byte	.LFE12
 2269 02aa 0100     		.2byte	0x1
 2270 02ac 54       		.byte	0x54
 2271 02ad 00000000 		.4byte	0
 2272 02b1 00000000 		.4byte	0
 2273              	.LVUS21:
 2274 02b5 00       		.uleb128 .LVU51
 2275 02b6 00       		.uleb128 .LVU54
 2276              	.LLST21:
 2277 02b7 2E000000 		.4byte	.LVL15
ARM GAS  /tmp/cc7hh7FW.s 			page 44


 2278 02bb 37000000 		.4byte	.LVL16-1
 2279 02bf 0100     		.2byte	0x1
 2280 02c1 50       		.byte	0x50
 2281 02c2 00000000 		.4byte	0
 2282 02c6 00000000 		.4byte	0
 2283              	.LVUS22:
 2284 02ca 00       		.uleb128 .LVU48
 2285 02cb 03       		.uleb128 .LVU61
 2286 02cc 00       		.uleb128 .LVU62
 2287 02cd 00       		.uleb128 .LVU68
 2288              	.LLST22:
 2289 02ce 2C000000 		.4byte	.LVL14
 2290 02d2 42000000 		.4byte	.LVL18
 2291 02d6 0100     		.2byte	0x1
 2292 02d8 54       		.byte	0x54
 2293 02d9 46000000 		.4byte	.LVL19
 2294 02dd 4A000000 		.4byte	.LVL21
 2295 02e1 0100     		.2byte	0x1
 2296 02e3 54       		.byte	0x54
 2297 02e4 00000000 		.4byte	0
 2298 02e8 00000000 		.4byte	0
 2299              	.LVUS23:
 2300 02ec 02       		.uleb128 .LVU57
 2301 02ed 03       		.uleb128 .LVU61
 2302              	.LLST23:
 2303 02ee 3A000000 		.4byte	.LVL17
 2304 02f2 42000000 		.4byte	.LVL18
 2305 02f6 0100     		.2byte	0x1
 2306 02f8 55       		.byte	0x55
 2307 02f9 00000000 		.4byte	0
 2308 02fd 00000000 		.4byte	0
 2309              	.LLST24:
 2310 0301 00000000 		.4byte	.LFB11
 2311 0305 02000000 		.4byte	.LCFI1
 2312 0309 0200     		.2byte	0x2
 2313 030b 7D       		.byte	0x7d
 2314 030c 00       		.sleb128 0
 2315 030d 02000000 		.4byte	.LCFI1
 2316 0311 54000000 		.4byte	.LFE11
 2317 0315 0200     		.2byte	0x2
 2318 0317 7D       		.byte	0x7d
 2319 0318 18       		.sleb128 24
 2320 0319 00000000 		.4byte	0
 2321 031d 00000000 		.4byte	0
 2322              	.LVUS25:
 2323 0321 00       		.uleb128 0
 2324 0322 00       		.uleb128 .LVU76
 2325 0323 00       		.uleb128 .LVU76
 2326 0324 00       		.uleb128 0
 2327              	.LLST25:
 2328 0325 00000000 		.4byte	.LVL22
 2329 0329 09000000 		.4byte	.LVL23-1
 2330 032d 0100     		.2byte	0x1
 2331 032f 50       		.byte	0x50
 2332 0330 09000000 		.4byte	.LVL23-1
 2333 0334 54000000 		.4byte	.LFE11
 2334 0338 0100     		.2byte	0x1
ARM GAS  /tmp/cc7hh7FW.s 			page 45


 2335 033a 56       		.byte	0x56
 2336 033b 00000000 		.4byte	0
 2337 033f 00000000 		.4byte	0
 2338              	.LVUS26:
 2339 0343 00       		.uleb128 0
 2340 0344 00       		.uleb128 .LVU76
 2341 0345 00       		.uleb128 .LVU76
 2342 0346 00       		.uleb128 0
 2343              	.LLST26:
 2344 0347 00000000 		.4byte	.LVL22
 2345 034b 09000000 		.4byte	.LVL23-1
 2346 034f 0100     		.2byte	0x1
 2347 0351 51       		.byte	0x51
 2348 0352 09000000 		.4byte	.LVL23-1
 2349 0356 54000000 		.4byte	.LFE11
 2350 035a 0100     		.2byte	0x1
 2351 035c 55       		.byte	0x55
 2352 035d 00000000 		.4byte	0
 2353 0361 00000000 		.4byte	0
 2354              	.LVUS27:
 2355 0365 01       		.uleb128 .LVU83
 2356 0366 00       		.uleb128 .LVU98
 2357 0367 00       		.uleb128 .LVU98
 2358 0368 00       		.uleb128 .LVU99
 2359 0369 00       		.uleb128 .LVU99
 2360 036a 00       		.uleb128 0
 2361              	.LLST27:
 2362 036b 18000000 		.4byte	.LVL24
 2363 036f 3A000000 		.4byte	.LVL29
 2364 0373 0100     		.2byte	0x1
 2365 0375 54       		.byte	0x54
 2366 0376 3A000000 		.4byte	.LVL29
 2367 037a 3C000000 		.4byte	.LVL30
 2368 037e 0300     		.2byte	0x3
 2369 0380 74       		.byte	0x74
 2370 0381 74       		.sleb128 -12
 2371 0382 9F       		.byte	0x9f
 2372 0383 3C000000 		.4byte	.LVL30
 2373 0387 54000000 		.4byte	.LFE11
 2374 038b 0100     		.2byte	0x1
 2375 038d 54       		.byte	0x54
 2376 038e 00000000 		.4byte	0
 2377 0392 00000000 		.4byte	0
 2378              	.LVUS28:
 2379 0396 01       		.uleb128 .LVU87
 2380 0397 03       		.uleb128 .LVU92
 2381              	.LLST28:
 2382 0398 22000000 		.4byte	.LVL26
 2383 039c 28000000 		.4byte	.LVL27
 2384 03a0 0100     		.2byte	0x1
 2385 03a2 55       		.byte	0x55
 2386 03a3 00000000 		.4byte	0
 2387 03a7 00000000 		.4byte	0
 2388              		.section	.debug_aranges,"",%progbits
 2389 0000 24000000 		.4byte	0x24
 2390 0004 0200     		.2byte	0x2
 2391 0006 00000000 		.4byte	.Ldebug_info0
ARM GAS  /tmp/cc7hh7FW.s 			page 46


 2392 000a 04       		.byte	0x4
 2393 000b 00       		.byte	0
 2394 000c 0000     		.2byte	0
 2395 000e 0000     		.2byte	0
 2396 0010 00000000 		.4byte	.LFB12
 2397 0014 4E000000 		.4byte	.LFE12-.LFB12
 2398 0018 00000000 		.4byte	.LFB11
 2399 001c 54000000 		.4byte	.LFE11-.LFB11
 2400 0020 00000000 		.4byte	0
 2401 0024 00000000 		.4byte	0
 2402              		.section	.debug_ranges,"",%progbits
 2403              	.Ldebug_ranges0:
 2404 0000 0A000000 		.4byte	.LBB16
 2405 0004 1E000000 		.4byte	.LBE16
 2406 0008 24000000 		.4byte	.LBB35
 2407 000c 28000000 		.4byte	.LBE35
 2408 0010 00000000 		.4byte	0
 2409 0014 00000000 		.4byte	0
 2410 0018 0C000000 		.4byte	.LBB18
 2411 001c 1E000000 		.4byte	.LBE18
 2412 0020 24000000 		.4byte	.LBB23
 2413 0024 28000000 		.4byte	.LBE23
 2414 0028 00000000 		.4byte	0
 2415 002c 00000000 		.4byte	0
 2416 0030 18000000 		.4byte	.LBB20
 2417 0034 1C000000 		.4byte	.LBE20
 2418 0038 1C000000 		.4byte	.LBB21
 2419 003c 1E000000 		.4byte	.LBE21
 2420 0040 00000000 		.4byte	0
 2421 0044 00000000 		.4byte	0
 2422 0048 1E000000 		.4byte	.LBB25
 2423 004c 20000000 		.4byte	.LBE25
 2424 0050 2A000000 		.4byte	.LBB36
 2425 0054 4A000000 		.4byte	.LBE36
 2426 0058 00000000 		.4byte	0
 2427 005c 00000000 		.4byte	0
 2428 0060 1E000000 		.4byte	.LBB27
 2429 0064 20000000 		.4byte	.LBE27
 2430 0068 2C000000 		.4byte	.LBB33
 2431 006c 4A000000 		.4byte	.LBE33
 2432 0070 00000000 		.4byte	0
 2433 0074 00000000 		.4byte	0
 2434 0078 1E000000 		.4byte	.LBB29
 2435 007c 20000000 		.4byte	.LBE29
 2436 0080 3A000000 		.4byte	.LBB30
 2437 0084 42000000 		.4byte	.LBE30
 2438 0088 42000000 		.4byte	.LBB31
 2439 008c 46000000 		.4byte	.LBE31
 2440 0090 00000000 		.4byte	0
 2441 0094 00000000 		.4byte	0
 2442 0098 18000000 		.4byte	.LBB37
 2443 009c 38000000 		.4byte	.LBE37
 2444 00a0 3C000000 		.4byte	.LBB39
 2445 00a4 54000000 		.4byte	.LBE39
 2446 00a8 00000000 		.4byte	0
 2447 00ac 00000000 		.4byte	0
 2448 00b0 00000000 		.4byte	.LFB12
ARM GAS  /tmp/cc7hh7FW.s 			page 47


 2449 00b4 4E000000 		.4byte	.LFE12
 2450 00b8 00000000 		.4byte	.LFB11
 2451 00bc 54000000 		.4byte	.LFE11
 2452 00c0 00000000 		.4byte	0
 2453 00c4 00000000 		.4byte	0
 2454              		.section	.debug_line,"",%progbits
 2455              	.Ldebug_line0:
 2456 0000 3E040000 		.section	.debug_str,"MS",%progbits,1
 2456      03009E02 
 2456      00000201 
 2456      FB0E0D00 
 2456      01010101 
 2457              	.LASF46:
 2458 0000 69736675 		.ascii	"isfunction\000"
 2458      6E637469 
 2458      6F6E00
 2459              	.LASF14:
 2460 000b 696E7438 		.ascii	"int8_t\000"
 2460      5F7400
 2461              	.LASF8:
 2462 0012 73686F72 		.ascii	"short int\000"
 2462      7420696E 
 2462      7400
 2463              	.LASF3:
 2464 001c 73697A65 		.ascii	"size_t\000"
 2464      5F7400
 2465              	.LASF34:
 2466 0023 7374726E 		.ascii	"strncmp\000"
 2466      636D7000 
 2467              	.LASF33:
 2468 002b 6C756152 		.ascii	"luaR_table\000"
 2468      5F746162 
 2468      6C6500
 2469              	.LASF29:
 2470 0036 76616C75 		.ascii	"value\000"
 2470      6500
 2471              	.LASF15:
 2472 003c 75696E74 		.ascii	"uint8_t\000"
 2472      385F7400 
 2473              	.LASF23:
 2474 0044 6C75614C 		.ascii	"luaL_Reg\000"
 2474      5F526567 
 2474      00
 2475              	.LASF40:
 2476 004d 6C756152 		.ascii	"luaR_findentry\000"
 2476      5F66696E 
 2476      64656E74 
 2476      727900
 2477              	.LASF47:
 2478 005c 474E5520 		.ascii	"GNU C17 14.2.1 20241119 -mcpu=cortex-m4 -mthumb -mf"
 2478      43313720 
 2478      31342E32 
 2478      2E312032 
 2478      30323431 
 2479 008f 6C6F6174 		.ascii	"loat-abi=hard -mfpu=fpv4-sp-d16 -march=armv7e-m+fp "
 2479      2D616269 
 2479      3D686172 
ARM GAS  /tmp/cc7hh7FW.s 			page 48


 2479      64202D6D 
 2479      6670753D 
 2480 00c2 2D676477 		.ascii	"-gdwarf-2 -Os -fomit-frame-pointer -fno-exceptions "
 2480      6172662D 
 2480      32202D4F 
 2480      73202D66 
 2480      6F6D6974 
 2481 00f5 2D666461 		.ascii	"-fdata-sections -ffunction-sections\000"
 2481      74612D73 
 2481      65637469 
 2481      6F6E7320 
 2481      2D666675 
 2482              	.LASF16:
 2483 0119 666C6F61 		.ascii	"float\000"
 2483      7400
 2484              	.LASF26:
 2485 011f 76616C75 		.ascii	"value_\000"
 2485      655F00
 2486              	.LASF22:
 2487 0126 66756E63 		.ascii	"func\000"
 2487      00
 2488              	.LASF1:
 2489 012b 6C6F6E67 		.ascii	"long long int\000"
 2489      206C6F6E 
 2489      6720696E 
 2489      7400
 2490              	.LASF49:
 2491 0139 2F686F6D 		.ascii	"/home/stero141/Projects/MicrocontrollersProjects/op"
 2491      652F7374 
 2491      65726F31 
 2491      34312F50 
 2491      726F6A65 
 2492 016c 656E7478 		.ascii	"entx-release-2.3.15/build_no_elrs/radio/src\000"
 2492      2D72656C 
 2492      65617365 
 2492      2D322E33 
 2492      2E31352F 
 2493              	.LASF10:
 2494 0198 6C6F6E67 		.ascii	"long int\000"
 2494      20696E74 
 2494      00
 2495              	.LASF42:
 2496 01a1 77686572 		.ascii	"where\000"
 2496      6500
 2497              	.LASF30:
 2498 01a7 6C756152 		.ascii	"luaR_value_entry\000"
 2498      5F76616C 
 2498      75655F65 
 2498      6E747279 
 2498      00
 2499              	.LASF6:
 2500 01b8 5F5F7569 		.ascii	"__uint8_t\000"
 2500      6E74385F 
 2500      7400
 2501              	.LASF7:
 2502 01c2 756E7369 		.ascii	"unsigned char\000"
 2502      676E6564 
ARM GAS  /tmp/cc7hh7FW.s 			page 49


 2502      20636861 
 2502      7200
 2503              	.LASF2:
 2504 01d0 6C6F6E67 		.ascii	"long double\000"
 2504      20646F75 
 2504      626C6500 
 2505              	.LASF20:
 2506 01dc 6C75615F 		.ascii	"lua_Number\000"
 2506      4E756D62 
 2506      657200
 2507              	.LASF5:
 2508 01e7 7369676E 		.ascii	"signed char\000"
 2508      65642063 
 2508      68617200 
 2509              	.LASF12:
 2510 01f3 6C6F6E67 		.ascii	"long long unsigned int\000"
 2510      206C6F6E 
 2510      6720756E 
 2510      7369676E 
 2510      65642069 
 2511              	.LASF43:
 2512 020a 74797065 		.ascii	"type\000"
 2512      00
 2513              	.LASF45:
 2514 020f 706E616D 		.ascii	"pname\000"
 2514      6500
 2515              	.LASF0:
 2516 0215 756E7369 		.ascii	"unsigned int\000"
 2516      676E6564 
 2516      20696E74 
 2516      00
 2517              	.LASF27:
 2518 0222 6C75615F 		.ascii	"lua_TValue\000"
 2518      5456616C 
 2518      756500
 2519              	.LASF25:
 2520 022d 56616C75 		.ascii	"Value\000"
 2520      6500
 2521              	.LASF28:
 2522 0233 6C756152 		.ascii	"luaR_result\000"
 2522      5F726573 
 2522      756C7400 
 2523              	.LASF9:
 2524 023f 73686F72 		.ascii	"short unsigned int\000"
 2524      7420756E 
 2524      7369676E 
 2524      65642069 
 2524      6E7400
 2525              	.LASF4:
 2526 0252 5F5F696E 		.ascii	"__int8_t\000"
 2526      74385F74 
 2526      00
 2527              	.LASF19:
 2528 025b 6C75615F 		.ascii	"lua_CFunction\000"
 2528      4346756E 
 2528      6374696F 
 2528      6E00
ARM GAS  /tmp/cc7hh7FW.s 			page 50


 2529              	.LASF13:
 2530 0269 63686172 		.ascii	"char\000"
 2530      00
 2531              	.LASF36:
 2532 026e 7374726C 		.ascii	"strlen\000"
 2532      656E00
 2533              	.LASF37:
 2534 0275 64617461 		.ascii	"data\000"
 2534      00
 2535              	.LASF38:
 2536 027a 6C75615F 		.ascii	"lua_rotable\000"
 2536      726F7461 
 2536      626C6500 
 2537              	.LASF11:
 2538 0286 6C6F6E67 		.ascii	"long unsigned int\000"
 2538      20756E73 
 2538      69676E65 
 2538      6420696E 
 2538      7400
 2539              	.LASF31:
 2540 0298 7066756E 		.ascii	"pfuncs\000"
 2540      637300
 2541              	.LASF44:
 2542 029f 666F756E 		.ascii	"found\000"
 2542      6400
 2543              	.LASF35:
 2544 02a5 73747263 		.ascii	"strcmp\000"
 2544      6D7000
 2545              	.LASF32:
 2546 02ac 7076616C 		.ascii	"pvalues\000"
 2546      75657300 
 2547              	.LASF21:
 2548 02b4 6E616D65 		.ascii	"name\000"
 2548      00
 2549              	.LASF39:
 2550 02b9 7461626C 		.ascii	"table\000"
 2550      6500
 2551              	.LASF17:
 2552 02bf 646F7562 		.ascii	"double\000"
 2552      6C6500
 2553              	.LASF50:
 2554 02c6 6C756152 		.ascii	"luaR_findkey\000"
 2554      5F66696E 
 2554      646B6579 
 2554      00
 2555              	.LASF24:
 2556 02d3 47434F62 		.ascii	"GCObject\000"
 2556      6A656374 
 2556      00
 2557              	.LASF48:
 2558 02dc 2F686F6D 		.ascii	"/home/stero141/Projects/MicrocontrollersProjects/op"
 2558      652F7374 
 2558      65726F31 
 2558      34312F50 
 2558      726F6A65 
 2559 030f 656E7478 		.ascii	"entx-release-2.3.15/radio/src/thirdparty/Lua/src/lr"
 2559      2D72656C 
ARM GAS  /tmp/cc7hh7FW.s 			page 51


 2559      65617365 
 2559      2D322E33 
 2559      2E31352F 
 2560 0342 6F746162 		.ascii	"otable.c\000"
 2560      6C652E63 
 2560      00
 2561              	.LASF41:
 2562 034b 6C756152 		.ascii	"luaR_findglobal\000"
 2562      5F66696E 
 2562      64676C6F 
 2562      62616C00 
 2563              	.LASF18:
 2564 035b 6C75615F 		.ascii	"lua_State\000"
 2564      53746174 
 2564      6500
 2565              		.ident	"GCC: (Arm GNU Toolchain 14.2.Rel1 (Build arm-14.52)) 14.2.1 20241119"
ARM GAS  /tmp/cc7hh7FW.s 			page 52


DEFINED SYMBOLS
                            *ABS*:00000000 lrotable.c
     /tmp/cc7hh7FW.s:26     .text.luaR_findentry:00000000 $t
     /tmp/cc7hh7FW.s:32     .text.luaR_findentry:00000000 luaR_findentry
     /tmp/cc7hh7FW.s:257    .text.luaR_findglobal:00000000 $t
     /tmp/cc7hh7FW.s:263    .text.luaR_findglobal:00000000 luaR_findglobal
     /tmp/cc7hh7FW.s:383    .text.luaR_findglobal:0000004c $d

UNDEFINED SYMBOLS
strcmp
strlen
strncmp
lua_rotable
                                                                                                                                                                                                                                                                                                                                                                                                                                                                                                                                                                                                                                                                                                                                                                                                                                                                                                                                                                                                                                                                                                                                                                                                                                                                                                                                                                                                                                                                                                                                                                                                                                                                                                                                                                                                                                                                                                                                                                                                                                                                                                                                                                                                                                                                                                                                                                                                                                                                                                                                                                                                                                                                                                                                                                                                                                                                                                                                                                                                                                                                                                                                                                                                                                                                                                                                                                                                                                                                                                                                                                                                                                                                                                                                                                                                                                                                                                                                                                                                                                                                                                                                                                                                                                                                                                                                                                                                                                                                                                                                                                                                                                                                                                                                                                                                                                                                                                                                                                                                                                                                                                                                                                                                                                                                                                                                                                                                                                                                                                                                                                                                                                                                                                                                                                                                                                                                                                                                                                                                                                                                                                                                                                                                                                                                                                                                                                                                                                                                                                                                                                                                                                                                                                                                                                                                                                                                                                                                                                                                                                                                                                                                                                                                                                                                                                                                                                                                                                                                                                                                                                                                                                                                                                                                                                                                                                                                                                                                                                                                                                                                                                                                                                                                                                                                                                                                                                                                                                                                                                                                                                                                                                                                                                                                                                                                                                                                                                                                                                                                                                                                                                                                                                                                                                                                                                                                                                                                                                                                                                                                                                                                                                                                                                                                                                                                                                                                                                                                                                                                                                                                                                                                                                                                                                                                                                                                                                                                                                                                                                                                                                                                                                                                                                                                                                                                                                                                                                                                                                                                                                                                                                                                                                                                                                                                                                                                                                                                                                                                                                                                                                                                                                                                                                                                                                                                                                                                                                                                                                                                                                                                                                                                                                                                                                                                                                                                                                                                                                                                                                                                                                                                                                                                                                                                                                                                                                                                                                                                                                                                                                                                                                                                                                                                                                                                                                                                                                                                                                                                                                                                                                                                                                                                                                                                                                                                                                                                                                                                                                                                                                                                                                                                                                                                                                                                                                                                                                                                                                                                                                                                                                                                                                                                                                                                                                                                                                                                                                                                                                                                                                                                                                                                                                                                                                                                                                                                                                                                                                                                                                                                                                                                                                                                                                                                                                                                                                                                                                                                                                                                                                                                                                                                                                                                                                                                                                                                                                                                                                                                                                                                                                                                                                                                                                                                                                                                                                                                                                                                                                                                                                                                                                                                                                                                                                                                                                                                                                                                                                                                                                                                                                                                                                                                                                                                                                                                                                                                                                                                                                                                                                                                                                                                                                                                                                                                                                                                                                                                                                                                                                                                                                                                                                                                                                                                                                                                                                                                                                                                                                                                                                                                                                                                                                                                                                                                                                                                                                                                                                                                                                                                                                                                                                                                                                                                                                                                                                                                                                                                                                                                                                                                                                                                                                                                                                                                                                                                                                                                                                                                                                                                                                                                                                                                                                                                                                                                                                                                                                                                                                                                                                                                                                                                                                                                                                                                                                                                                                                                                                                                                                                                                                                                                                                                                                                                                                                                                                                                                                                                                                                                                                                                                                                                                                                                                                                                                                                                                                                                                                                                                                                                                                                                                                                                                                                                                                                                                                                                                                                                                                                                                                                                                                                                                                                                                                                                                                                                                                                                                                                                                                                                                                                                                                                                                                                                                                                                                                                                                                                                                                                                                                                                                                                                                                                                                                                                                                                                                                                                                                                                                                                                                                                                                                                                                                                                                                                                                                                                                                                                                                                                                                                                                                                                                                                                                                                                                                                                                                                                                                                                                                                                                                                                                                                                                                                                                                                                                                                                                                                                                                                                                                                                                                                                                                                                                                                                                                                                                                                                                                                                                                                                                                                                                                                                                                                                                                                                                                                                                                                                                                                                                                                                                                                                                                                                                                                                                                                                                                                                                                                                                                                                                                                                                                                                                                                                                                                                                                                                                                                                                                                                                                                                                                                                                                                                                                                                                                                                                                                                                                                                                                                                                                                                                                                                                                                                                                                                                                                                                                                                                                                                                                                                                                                                                                                                                                                                                                                                                                                                                                                                                                                                                                                                                                                                                                                                                                                                                                                                                                                                                                                                                                                                                                                                                                                                                                                                                                                                                                                                                                                                                                                                                                                                                                                                                                                                                                                                                                                                                                                                                                                                                                                                                                                                                                                                                                                                                                                                                                                                                                                                                                                                                                                                                                                                                                                                                                                                                                                                                                                                                                                                                                                                                                                                                                                                                                                                                                                                                                                                                                                                                                                                                                                                                                                                                                                                                                                                                                                                                                                                                                                                                                                                                                                                                                                                                                                                                                                                                                                                                                                                                                                                                                                                                                                                                                                                                                                                                                                                                                                                                                                                                                                                                                                                                                                                                                                                                                                                                                                                                                                                                                                                                                                                                                                                                                                                                                                                                                                                                                                                                                                                                                                                                                                                                                                                                                                                                                                                                                                                                                                                                                                                                                                                                                                                                                                                                                                                                                                                                                                                                                                                                                                                                                                                                                                                                                                                                                                                                                                                                                                                                                                                                                                                                                                                                                                                                                                                                                                                                                                                                                                                                                                                                                                                                                                                                                                                                                                                                                                                                                                                                                                                                                                                                                                                                                                                                                                                                                                                                                                                                                                                                                                                                                                                                                                                                                                                                                                                                                                                                                                                                                                                                                                                                                                                                                                                                                                                                                                                                                                                                                                                                                                                                                                                                                                                                                                                                                                                                                                                                                                                                                                                                                                                                                                                                                                                                                                                                                                                                                                                                                                                                                                                                                                                                                                                                                                                                                                                                                                                                                                                                                                                                                                                                                                                                                                                                                                                                                                                                                                                                                                                                                                                                                                                                                                                                                                                                                                                                                                                                                                                                                                                                                                                                                                                                                                                                                                                                                                                                                                                                                                                                                                                                                                                                                                                                                                                                                                                                                                                                                                                                                                                                                                                                                                                                                                                                                                                                                                                                                                                                                                                                                                                                                                                                                                                                                                                                                                                                                                                                                                                                                                                                                                                                                                                                                                                                                                                                                                                                                                                                                                                                                                                                                                                                                                                                                                                                                                                                                                                                                                                                                                                                                                                                                                                                                                                                                                                                                                                                                                                                                                                                                                                                                                                                                                                                                                                                                                                                                                                                                                                                                                                                                                                                                                                                                                                                                                                                                                                                                                                                                                                                                                                                                                                                                                                                                                                                                                                                                                                                                                                                                                                                                                                                                                                                                                                                                                                                                                                                                                                                                                                                                                                                                                                                                                                                                                                                                                                                                                                                                                                                                                                                                                                                                                                                                                                                                                                                                                                                                                                                                                                                                                                                                                                                                                                                                                                                                                                                                                                                                                                                                                                                                                                                                                                                                                                                                                                                                                                                                                                                                                                                                                                                                                                                                                                                                                                                                                                                                                                                                                                                                                                                                                                                                                                                                                                                                                                                                                                                                                                                                                                                                                                                                                                                                                                                                                                                                                                                                                                                                                                                                                                                                                                                                                                                                                                                                                                                                                                                                                                                                                                                                                                                                                                                                                                                                                                                                                                                                                                                                                                                                                                                                                                                                                                                                                                                                                                                                                                                                                                                                                                                                                                                                                                                                                                                                                                                                                                                                                                                                                                                                                                                                                                                                                                                                                                                                                                                                                                                                                                                                                                                                                                                                                                                                                                                                                                                                                                                                                                                                                                                                                                                                                                                                                                                                                                                                                                                                                                                                                                                                                                                                                                                                                                                                                                                                                                                                                                                                                                                                                                                                                                                                                                                                                                                                                                                                                                                                                                                                                                                                                                                                                                                                                                                                                                                                                                                                                                                                                                                                                                                                                                                                                                                                                                                                                                                                                                                                                                                                                                                                                                                                                                                                                                                                                                                                                                                                                                                                                                                                                                                                                                                                                                                                                                                                                                                                                                                                                                                                                                                                                                                                                                                                                                                                                                                                                                                                                                                                                                                                                                                                                                                                                                                                                                                                                                                                                                                                                                                                                                                                                                                                                                                                                                                                                                                                                                                                                                                                                                                                                                                                                                                                                                                                                                                                                                                                                                                                                                                                                                                                                                                                                                                                                                                                                                                                                                                                                                                                                                                                                                                                                                                                                                                                                                                                                                                                                                                                                                                                                                                                                                                                                                                                                                                                                                                                                                                                                                                                                                                                                                                                                                                                                                                                                                                                                                                                                                                                                                                                                                                                                                                                                                                                                                                                                                                                                                                                                                                                                                                                                                                                                                                                                                                                                                                                                                                                                                                                                                                                                                                                                                                                                                                                                                                                                                                                                                                                                                                                                                                                                                                                                                                                                                                                                                                                                                                                                                                                                                                                                                                                                                                                                                                                                                                                                                                                                                                                                                                                                                                                                                                                                                                                                                                                                                                                                                                                                                                                                                                                                                                                                                                                                                                                                                                                                                                                                                                                                                                                                                                                                                                                                                                                                                                                                                                                                                                                                                                                                                                                                                                                                                                                                                                                                                                                                                                                                                                                                                                                                                                                                                                                                                                                                                                                                                                                                                                                                                                                                                                                                                                                                                                                                                                                                                                                                                                                                                                                                                                                                                                                                                                                                                                                                                                                                                                                                                                                                                                                                                                                                                                                                                                                                                                                                                                                                                                                                                                                                                                                                                                                                                                                                                                                                                                                                                                                                                                                                                                                                                                                                                                                                                                                                                                                                                                                                                                                                                                                                                                                                                                                                                                                                                                                                                                                                                                                                                                                                                                                                                                                                                                                                                                                                                                                                                                                                                                                                                                                                                                                                                                                                                                                                                                                                                                                                                                                                                                                                                                                                                                                                                                                                                                                                                                                                                                                                                                                                                                                                                                                                                                                                                                                                                                                                                                                                                                                                                                                                                                                                                                                                                                                                                                                                                                                                                                                                                                                                                                                                                                                                                                                                                                                                                                                                                                                                                                                                                                                                                                                                                                                                                                                                                                                                                                                                                                                                                                                                                                                                                                                                                                                                                                                                                                                                                                                                                                                                                                                                                                                                                                                                                                                                                                                                                                                                                                                                                                                                                                                                                                                                                                                                                                                                                                                                                                                                                                                                                                                                                                                                                                                                                                                                                                                                                                                                                                                                                                                                                                                                                                                                                                                                                                                                                                                                                                                                                                                                                                                                                                                                                                                                                                                                                                                                                                                                                                                                                                                                                                                                                                                                                                                                                                                                                                                                                                                                                                                                                                                                                                                                                                                                                                                                                                                                                                                                                                                                                                                                                                                                                                                                                                                                                                                                                                                                                                                                                                                                                                                                                                                                                                                                                                                                                                                                                                                                                                                                                                                                                                                                                                                                                                                                                                                                                                                                                                                                                                                                                                                                                                                                                                                                                                                                                                                                                                                                                                                                                                                                                                                                                                                                                                                                                                                                                                                                                                                                                                                                                                                                                                                                                                                                                                                                                                                                                                                                                                                                                                                                                                                                                                                                                                                                                                                                                                                                                                                                                                                                                                                                                                                                                                                                                                                                                                                                                                                                                                                                                                                                                                                                                                                                                                                                                                                                                                                                                                                                                                                                                                                                                                                                                                                                                                                                                                                                                                                                                                                                                                                                                                                                                                                                                                                                                                                                                                                                                                                                                                                                                                                                                                                                                                                                                                                                                                                                                                                                                                                                                                                                                                                                                                                                                                                                                                                                                                                                                                                                                                                                                                                                                                                                                                                                                                                                                                                                                                                                                                                                                                                                                                                                                                                                                                                                                                                                                                                                                                                                                                                                                                                                                                                                                                                                                                                                                                                                                                                                                                                                                                                                                                                                                                                                                                                                                                                                                                                                                                                                                                                                                                                                                                                                                                                                                                                                                                                                                                                                                                                                                                                                                                                                                                                                                                                                                                                                                                                                                                                                                                                                                                                                                                                                                                                                                                                                                                                                                                                                                                                                                                                                                                                                                                                                                                                                                                                                                                                                                                                                                                                                                                                                                                                                                                                                                                                                                                                                                                                                                                                                                                                                                                                                                                                                                                                                                                                                                                                                                                                                                                                                                                                                                                                                                                                                                                                                                                                                                                                                                                                                                                                                                                                                                                                                                                                                                                                                                                                                                                                                                                                                                                                                                                                                                                                                                                                                                                                                                                                                                                                                                                                                                                                                                                                                                                                                                                                                                                                                                                                                                                                                                                                                                                                                                                                                                                                                                                                                                                                                                                                                                                                                                                                                                                                                                                                                                                                                                                                                                                                                                                                                                                                                                                                                                                                                                                                                                                                                                                                                                                                                                                                                                                                                                                                                                                                                                                                                                                                                                                                                                                                                                                                                                                                                                                                                                                                                                                                                                                                                                                                                                                                                                                                                                                                                                                                                                                                                                                                                                                                                                                                                                                                                                                                                                                                                                                                                                                                                                                                                                                                                                                                                                                                                                                                                                                                                                                                                                                                                                                                                                                                                                                                                                                                                                                                                                                                                                                                                                                                                                                                                                                                                                                                                                                                                                                                                                                                                                                                                                                                                                                                                                                                                                                                                                                                                                                                                                                                                                                                                                                                                                                                                                                                                                                                                                                                                                                                                                                                                                                                                                                                                                                                                                                                                                                                                                                                                                                                                                                                                                                                                                                                                                                                                                                                                                                                                                                                                                                                                                                                                                                                                                                                                                                                                                                                                                                                                                                                                                                                                                                                                                                                                                                                                                                                                                                                                                                                                                                                                                                                                                                                                                                                                                                                                                                                                                                                                                                                                                                                                                                                                                                                                                                                                                                                                                                                                                                                                                                                                                                                                                                                                                                                                                                                                                                                                                                                                                                                                                                                                                                                                                                                                                                                                                                                                                                                                                                                                                                                                                                                                                                                                                                                                                                                                                                                                                                                                                                                                                                                                                                                                                                                                                                                                                                                                                                                                                                                                                                                                                                                                                                                                                                                                                                                                                                                                                                                                                                                                                                                                                                                                                                                                                                                                                                                                                                                                                                                                                                                                                                                                                                                                                                                                                                                                                                                                                                                                                                                                                                                                                                                                                                                                                                                                                                                                                                                                                                                                                                                                                                                                                                                                                                                                                                                                                                                                                                                                                                                                                                                                                                                                                                                                                                                                                                                                                                                                                                                                                                                                                                                                                                                                                                                                                                                                                                                                                                                                                                                                                                                                                                                                                                                                                                                                                                                                                                                                                                                                                                                                                                                                                                                                                                                                                                                                                                                                                                                                                                                                                                                                                                                                                                                                                                                                                                                                                                                                                                                                                                                                                                                                                                                                                                                                                                                                                                                                                                                                                                                                                                                                                                                                                                                                                                                                                                                                                                                                                                                                                                                                                                                                                                                                                                                                                                                                                                                                                                                                                                                                                                                                                                                                                                                                                                                                                                                                                                                                                                                                                                                                                                                                                                                                                                                                                                                                                                                                                                                                                                                                                                                                                                                                                                                                                                                                                                                                                                                                                                                                                                                                                                                                                                                                                                                                                                                                                                                                                                                                                                                                                                                                                                                                                                                                                                                                                                                                                                                                                                                                                                                                                                                                                                                                                                                                                                                                                                                                                                                                                                                                                                                                                                                                                                                                                                                                                                                                                                                                                                                                                                                                                                                                                                                                                                                                                                                                                                                                                                                                                                                                                                                                                                                                                                                                                                                                                                                                                                                                                                                                                                                                                                                                                                                                                                                                                                                                                                                                                                                                                                                                                                                                                                                                                                                                                                                                                                                                                                                                                                                                                                                                                                                                                                                                                                                                                                                                                                                                                                                                                                                                                                                                                                                                                                                                                                                                                                                                                                                                                                                                                                                                                                                                                                                                                                                                                                                                                                                                                                                                                                                                                                                                                                                                                                                                                                                                                                                                                                                                                                                                                                                                                                                                                                                                                                                                                                                                                                                                                                                                                                                                                                                                                                                                                                                                                                                                                                                                                                                                                                                                                                                                                                                                                                                                                                                                                                                                                                                                                                                                                                                                                                                                                                                                                                                                                                                                                                                                                                                                                                                                                                                                                                                                                                                                                                                                                                                                                                                                                                                                                                                                                                                                                                                                                                                                                                                                                                                                                                                                                                                                                                                                                                                                                                                                                                                                                                                                                                                                                                                                                                                                                                                                                                                                                                                                                                                                                                                                                                                                                                                                                                                                                                                                                                                                                                                                                                                                                                                                                                                                                                                                                                                                                                                                                                                                                                                                                                                                                                                                                                                                                                                                                                                                                                                                                                                                                                                                                                                                                                                                                                                                                                                                                                                                                                                                                                                                                                                                                                                                                                                                                                                                                                                                                                                                                                                                                                                                                                                                                                                                                                                                                                                                                                                                                                                                                                                                                                                                                                                                                                                                                                                                                                                                                                                                                                                                                                                                                                                                                                                                                                                                                                                                                                                                                                                                                                                                                                                                                                                                                                                                                                                                                                                                                                                                                                                                                                                                                                                                                                                                                                                                                                                                                                                                                                                                                                                                                                                                                                                                                                                                                                                                                                                                                                                                                                                                                                                                                                                                                                                                                                                                                                                                                                                                                                                                                                                                                                                                                                                                                                                                                                                                                                                                                                                                                                                                                                                                                                                                                                                                                                                                                                                                                                                                                                                                                                                                                                                                                                                                                                                                                                                                                                                                                                                                                                                                                                                                                                                                                                                                                                                                                                                                                                                                                                                                                                                                                                                                                                                                                                                                                                                                                                                                                                                                                                                                                                                                                                                                                                                                                                                                                                                                                                                                                                                                                                                                                                                                                                                                                                                                                                                                                                                                                                                                                                                                                                                                                                                                                                                                                                                                                                                                                                                                                                                                                                                                                                                                                                                                                                                                                                                                                                                                                                                                                                                                                                                                                                                                                                                                                                                                                                                                                                                                                                                                                                                                                                                                                                                                                                                                                                                                                                                                                                                                                                                                                                                                                                                                                                                                                                                                                                                                                                                                                                                                                                                                                                                                                                                                                                                                                                                                                                                                                                                                                                                                                                                                                                                                                                                                                                                                                                                                                                                                                                                                                                                                                                                                                                                                                                                                                                                                                                                                                                                                                                                                                                                                                                                                                                                                                                                                                                                                                                                                                                                                                                                                                                                                                                                                                                                                                                                                                                                                                                                                                                                                                                                                                                                                                                                                                                                                                                                                                                                                                                                                                                                                                                                                                                                                                                                                                                                                                                                                                                                                                                                                                                                                                                                                                                                                                                                                                                                                                                                                                                                                                                                                                                                                                                                                                                                                                                                                                                                                                                                                                                                                                                                                                                                                                                                                                                                                                                                                                                                                                                                                                                                                                                                                                                                                                                                                                                                                                                                                                                                                                                                                                                                                                                                                                                                                                                                                                                                                                                                                                                                                                                                                                                                                                                                                                                                                                                                                                                                                                                                                                                                                                                                                                                                                                                                                                                                                                                                                                                                                                                                                                                                                                                                                                                                                                                                                                                                                                                                                                                                                                                                                                                                                                                                                                                                                                                                                                                                                                                                                                                                                                                                                                                                                                                                                                                                                                                                                                                                                                                                                                                                                                                                                                                                                                                                                                                                                                                                                                                                                                                                                                                                                                                                                                                                                                                                                                                                                                                                                                                                                                                                                                                                                                                                                                                                                                                                                                                                                                                                                                                                                                                                                                                                                                                                                                                                                                                                                                                                                                                                                                                                                                                                                                                                                                                                                                                                                                                                                                                                                                                                                                                                                                                                                                                                                                                                                                                                                                                                                                                                                                                                                                                                                                                                                                                                                                                                                                                                                                                                                                                                                                                                                                                                                                                                                                                                                                                                                                                                                                                                                                                                                                                                                                                                                                                                                                                                                                                                                                                                                                                                                                                                                                                                                                                                                                                                                                                                                                                                                                                                                                                                                                                                                                                                                                                                                                                                                                                                                                                                                                                                                                                                                                                                                                                                                                                                                                                                                                                                                                                                                                                                                                                                                                                                                                                                                                                                                                                                                                                                                                                                                                                                                                                                                                                                                                                                                                                                                                                                                                                                                                                                                                                                                                                                                                                                                                                                                                                                                                                                                                                                                                                                                                                                                                                                                                                                                                                                                                                                                                                                                                                                                                                                                                                                                                                                                                                                                                                                                                                                                                                                                                                                                                                                                                                                                                                                                                                                                                                                                                                                                                                                                                                                                                                                                                                                                                                                                                                                                                                                                                                                                                                                                                                                                                                                                                                                                                                                                                                                                                                                                                                                                                                                                                                                                                                                                                                                                                                                                                                                                                                                                                                                                                                                                                                                                                                                                                                                                                                                                                                                                                                                                                                                                                                                                                                                                                                                                                                                                                                                                                                                                                                                                                                                                                                                                                                                                                                                                                                                                                                                                                                                                                                                                                                                                                                                                                                                                                                                                                                                                                                                                                                                                                                                                                                                                                                                                                                                                                                                                                                                                                                                                                                                                                                                                                                                                                                                                                                                                                                                                                                                                                                                                                                                                                                                                                                                                                                                                                                                                                                                                                                                                                                                                                                                                                                                                                                                                                                                                                                                                                                                                                                                                                                                                                                                                                                                                                                                                                                                                                                                                                                                                                                                                                                                                                                                                                                                                                                                                                                                                                                                                                                                                                                                                                                                                                                                                                                                                                                                                                                                                                                                                                                                                                                                                                                                                                                                                                                                                                                                                                                                                                                                                                                                                                                                                                                                                                                                                                                                                                                                                                                                                                                                                                                                                                                                                                                                                                                                                                                                                                                                                                                                                                                                                                                                                                                                                                                                                                                                                                                                                                                                                                                                                                                                                                                                                                                                                                                                                                                                                                                                                                                                                                                                                                                                                                                                                                                                                                                                                                                                                                                                                                                                                                                                                                                                                                                                                                                                                                                                                                                                                                                                                                                                                                                                                                                                                                                                                                                                                                                                                                                                                                                                                                                                                                                                                                                                                                                                                                                                                                                                                                                                                                                                                                                                                                                                                                                                                                                                                                                                                                                                                                                                                                                                                                                                                                                                                                                                                                                                                                                                                                                                                                                                                                                                                                                                                                                                                                                                                                                                                                                                                                                                                                                                                                                                                                                                                                                                                                                                                                                                                                                                                                                                                                                                                                                                                                                                                                                                                                                                                                                                                                                                                                                                                                                                                                                                                                                                                                                                                                                                                                                                                                                                                                                                                                                                                                                                                                                                                                                                                                                                                                                                                                                                                                                                                                                                                                                                                                                                                                                                                                                                                                                                                                                                                                                                                                                                                                                                                                                                                                                                                                                                                                                                                                                                                                                                                                                                                                                                                                                                                                                                                                                                                                                                                                                                                                                                                                                                                                                                                                                                                                                                                                                                                                                                                                                                                                                                                                                                                                                                                                                                                                                                                                                                                                                                                                                                                                                                                                                                                                                                                                                                                                                                                                                                                                                                                                                                                                                                                                                                                                                                                                                                                                                                                                                                                                                                                                                                                                                                                                                                                                                                                                                                                                                                                                                                                                                                                                                                                                                                                                                                                                                                                                                                                                                                                                                                                                                                                                                                                                                                                                                                                                                                                                                                                                                                                                                                                                                                                                                                                                                                                                                                                                                                                                                                                                                                                                                                                                                                                                                                                                                                                                                                                                                                                                                                                                                                                                                                                                                                                                                                                                                                                                                                                                                                                                                                                                                                                                                                                                                                                                                                                                                                                                                                                                                                                                                                                                                                                                                                                                                                                                                                                                                                                                                                                                                                                                                                                                                                                                                                                                                                                                                                                                                                                                                                                                                                                                                                                                                                                                                                                                                                                                                                                                                                                                                                                                                                                                                                                                                                                                                                                                                                                                                                                                                                                                                                                                                                                                                                                                                                                                                                                                                                                                                                                                                                                                                                                                                                                                                                                                                                                                                                                                                                                                                                                                                                                                                                                                                                                                                                                                                                                                                                                                                                                                                                                                                                                                                                                                                                                                                                                                                                                                                                                                                                                                                                                                                                                                                                                                                                                                                                                                                                                                                                                                                                                                                                                                                                                                                                                                                                                                                                                                                                                                                                                                                                                                                                                                                                                                                                                                                                                                                                                                                                                                                                                                                                                                                                                                                                                                                                                                                                                                                                                                                                                                                                                                                                                                                                                                                                                                                                                                                                                                                                                                                                                                                                                                                                                                                                                                                                                                                                                                                                                                                                                                                                                                                                                                                                                                                                                                                                                                                                                                                                                                                                                                                                                                                                                                                                                                                                                                                                                                                                                                                                                                                                                                                                                                                                                                                                                                                                                                                                                                                                                                                                                                                                                                                                                                                                                                                                                                                                                                                                                                                                                                                                                                                                                                                                                                                                                                                                                                                                                                                                                                                                                                                                                                                                                                                                                                                                                                                                                                                                                                                                                                                                                                                                                                                                                                                                                                                                                                                                                                                                                                                                                                                                                                                                                                                                                                                                                                                                                                                                                                                                                                                                                                                                                                                                                                                                                                                                                                                                                                                                                                                                                                                                                                                                                                                                                                                                                                                                                                                                                                                                                                                                                                                                                                                                                                                                                                                                                                                                                                                                                                                                                                                                                                                                                                                                                                                                                                                                                                                                                                                                                                                                                                                                                                                                                                                                                                                                                                                                                                                                                                                                                                                                                                                                                                                                                                                                                                                                                                                                                                                                                                                                                                                                                                                                                                                                                                                                                                                                                                                                                                                                                                                                                                                                                                                                                                                                                                                                                                                                                                                                                                                                                                                                                                                                                                                                                                                                                                                                                                                                                                                                                                                                                                                                                                                                                                                                                                                                                                                                                                                                                                                                                                                                                                                                                                                                                                                                                                                                                                                                                                                                                                                                                                                                                                                                                                                                                                                                                                                                                                                                                                                                                                                                                                                                                                                                                                                                                                                                                                                                                                                                                                                                                                                                                                                                                                                                                                                                                                                                                                                                                                                                                                                                                                                                                                                                                                                                                                                                                                                                                                                                                                                                                                                                                                                                                                                                                                                                                                                                                                                                                                                                                                                                                                                                                                                                                                                                                                                                                                                                                                                                                                                                                                                                                                                                                                                                                                                                                                                                                                                                                                                                                                                                                                                                                                                                                                                                                                                                                                                                                                                                                                                                                                                                                                                                                                                                                                                                                                                                                                                                                                                                                                                                                                                                                                                                                                                                                                                                                                                                                                                                                                                                                                                                                                                                                                                                                                                                                                                                                                                                                                                                                                                                                                                                                                                                                                                                                                                                                                                                                                                                                                                                                                                                                                                                                                                                                                                                                                                                                                                                                                                                                                                                                                                                                                                                                                                                                                                                                                                                                                                                                                                                                                                                                                                                                                                                                                                                                                                                                                                                                                                                                                                                                                                                                                                                                                                                                                                                                                                                                                                                                                                                                                                                                                                                                                                                                                                                                                                                                                                                                                                                                                                                                                                                                                                                                                                                                                                                                                                                                                                                                                                                                                                                                                                                                                                                                                                                                                                                                                                                                                                                                                                                                                                                                                                                                                                                                                                                                                                                                                                                                                                                                                                                                                                                                                                                                                                                                                                                                                                                                                                                                                                                                                                                                                                                                                                                                                                                                                                                                                                                                                                                                                                                                                                                                                                                                                                                                                                                                                                                                                                                                                                                                                                                                                                                                                                                                                                                                                                                                                                                                                                                                                                                                                                                                                                                                                                                                                                                                                                                                                                                                                                                                                                                                                                                                                                                                                                                                                                                                                                                                                                                                                                                                                                                                                                                                                                                                                                                                                                                                                                                                                                                                                                                                                                                                                                                                                                                                                                                                                                                                                                                                                                                                                                                                                                                                                                                                                                                                                                                                                                                                                                                                                                                                                                                                                                                                                                                                                                                                                                                                                                                                                                                                                                                                                                                                                                                                                                                                                                                                                                                                                                                                                                                                                                                                                                                                                                                                                                                                                                                                                                                                                                                                                                                                                                                                                                                                                                                                                                                                                                                                                                                                                                                                                                                                                                                                                                                                                                                                                                                                                                                                                                                                                                                                                                                                                                                                                                                                                                                                                                                                                                                                                                                                                                                                                                                                                                                                                                                                                                                                                                                                                                                                                                                                                                                                                                                                                                                                                                                                                                                                                                                                                                                                                                                                                                                                                                                                                                                                                                                                                                                                                                                                                                                                                                                                                                                                                                                                                                                                                                                                                                                                                                                                                                                                                                                                                                                                                                                                                                                                                                                                                                                                                                                                                                                                                                                                                                                                                                                                                                                                                                                                                                                                                                                                                                                                                                                                                                                                                                                                                                                                                                                                                                                                                                                                                                                                                                                                                                                                                                                                                                                                                                                                                                                                                                                                                                                                                                                                                                                                                                                                                                                                                                                                                                                                                                                                                                                                                                                                                                                                                                                                                                                                                                                                                                                                                                                                                                                                                                                                                                                                                                                                                                                                                                                                                                                                                                                                                                                                                                                                                                                                                                                                                                                                                                                                                                                                                                                                                                                                                                                                                                                                                                                                                                                                                                                                                                                                                                                                                                                                                                                                                                                                                                                                                                                                                                                                                                                                                                                                                                                                                                                                                                                                                                                                                                                                                                                                                                                                                                                                                                                                                                                                                                                                                                                                                                                                                                                                                                                                                                                                                                                                                                                                                                                                                                                                                                                                                                                                                                                                                                                                                                                                                                                                                                                                                                                                                                                                                                                                                                                                                                                                                                                                                                                                                                                                                                                                                                                                                                                                                                                                                                                                                                                                                                                                                                                                                                                                                                                                                                                                                                                                                                                                                                                                                                                                                                                                                                                                                                                                                                                                                                                                                                                                                                                                                                                                                                                                                                                                                                                                                                                                                                                                                                                                                                                                                                                                                                                                                                                                                                                                                                                                                                                                                                                                                                                                                                                                                                                                                                                                                                                                                                                                                                                                                                                                                                                                                                                                                                                                                                                                                                                                                                                                                                                                                                                                                                                                                                                                                                                                                                                                                                                                                                                                                                                                                                                                                                                                                                                                                                                                                                                                                                                                                                                                                                                                                                                                                                                                                                                                                                                                                                                                                                                                                                                                                                                                                                                                                                                                                                                                                                                                                                                                                                                                                                                                                                                                                                                                                                                                                                                                                                                                                                                                                                                                                                                                                                                                                                                                                                                                                                                                                                                                                                                                                                                                                                                                                                                                                                                                                                                                                                                                                                                                                                                                                                                                                                                                                                                                                                                                                                                                                                                                                                                                                                                                                                                                                                                                                                                                                                                                                                                                                                                                                                                                                                                                                                                                                                                                                                                                                                                                                                                                                                                                                                                                                                                                                                                                                                                                                                                                                                                                                                                                                                                                                                                                                                                                                                                                                                                                                                                                                                                                                                                                                                                                                                                                                                                                                                                                                                                                                                                                                                                                                                                                                                                                                                                                                                                                                                                                                                                                                                                                                                                                                                                                                                                                                                                                                                                                                                                                                                                                                                                                                                                                                                                                                                                                                                                                                                                                                                                                                                                                                                                                                                                                                                                                                                                                                                                                                                                                                                                                                                                                                                                                                                                                                                                                                                                                                                                                                                                                                                                                                                                                                                                                                                                                                                                                                                                                                                                                                                                                                                                                                                                                                                                                                                                                                                                                                                                                                                                                                                                                                                                                                                                                                                                                                                                                                                                                                                                                                                                                                                                                                                                                                                                                                                                                                                                                                                                                                                                                                                                                                                                                                                                                                                                                                                                                                                                                                                                                                                                                                                                                                                                                                                                                                                                                                                                                                                                                                                                                                                                                                                                                                                                                                                                                                                                                                                                                                                                                                                                                                                                                                                                                                                                                                                                                                                                                                                                                                                                                                                                                                                                                                                                                                                                                                                                                                                                                                                                                                                                                                                                                                                                                                                                                                                                                                                                                                                                                                                                                                                                                                                                                                                                                                                                                                                                                                                                                                                                                                                                                                                                                                                                                                                                                                                                                                                                                                                                                                                                                                                                                                                                                                                                                                                                                                                                                                                                                                                                                                                                                                                                                                                                                                                                                                                                                                                                                                                                                                                                                                                                                                                                                                                                                                                                                                                                                                                                                                                                                                                                                                                                                                                                                                                                                                                                                                                                                                                                                                                                                                                                                                                                                                                                                                                                                                                                                                                                                                                                                                                                                                                                                                                                                                                                                                                                                                                                                                                                                                                                                                                                                                                                                                                                                                                                                                                                                                                                                                                                                                                                                                                                                                                                                                                                                                                                                                                                                                                                                                                                                                                                                                                                                                                                                                                                                                                                                                                                                                                                                                                                                                                                                                                                                                                                                                                                                                                                                                                                                                                                                                                                                                                                                                                                                                                                                                                                                                                                                                                                                                                                                                                                                                                                                                                                                                                                                                                                                                                                                                                                                                                                                                                                                                                                                                                                                                                                                                                                                                                                                                                                                                                                                                                                                                                                                                                                                                                                                                                                                                                                                                                                                                                                                                                                                                                                                                                                                                                                                                                                                                                                                                                                                                                                                                                                                                                                                                                                                                                                                                                                                                                                                                                                                                                                                                                                                                                                                                                                                                                                                                                                                                                                                                                                                                                                                                                                                                                                                                                                                                                                                                                                                                                                                                                                                                                                                                                                                                                                                                                                                                                                                                                                                                                                                                                                                                                                                                                                                                                                                                                                                                                                                                                                                                                                                                                                                                                                                                                                                                                                                                                                                                                                                                                                                                                                                                                                                                                                                                                                                                                                                                                                                                                                                                                                                                                                                                                                                                                                                                                                                                                                                                                                                                                                                                                                                                                                                                                                                                                                                                                                                                                                                                                                                                                                                                                                                                                                                                                                                                                                                                                                                                                                                                                                                                                                                                                                                                                                                                                                                                                                                                                                                                                                                                                                                                                                                                                                                                                                                                                                                                                                                                                                                                                                                                                                                                                                                                                                                                                                                                                                                                                                                                                                                                                                                                                                                                                                                                                                                                                                                                                                                                                                                                                                                                                                                                                                                                                                                                                                                                                                                                                                                                                                                                                                                                                                                                                                                                                                                                                                                                                                                                                                                                                                                                                                                                                                                                                                                                                                                                                                                                                                                                                                                                                                                                                                                                                                                                                                                                                                                                                                                                                                                                                                                                                                                                                                                                                                                                                                                                                                                                                                                                                                                                                                                                                                                                                                                                                                                                                                                                                                                                                                                                                                                                                                                                                                                                                                                                                                                                                                                                                                                                                                                                                                                                                                                                                                                                                                                                                                                                                                                                                                                                                                                                                                                                                                                                                                                                                                                                                                                                                                                                                                                                                                                                                                                                                                                                                                                                                                                                                                                                                                                                                                                                                                                                                                                                                                                                                                                                                                                                                                                                                                                                                                                                                                                                                                                                                                                                                                                                                                                                                                                                                                                                                                                                                                                                                                                                                                                                                                                                                                                                                                                                                                                                                                                                                                                                                                                                                                                                                                                                                                                                                                                                                                                                                                                                                                                                                                                                                                                                                                                                                                                                                                                                                                                                                                                                                                                                                                                                                                                                                                                                                                                                                                                                                                                                                                                                                                                                                                                                                                                                                                                                                                                                                                                                                                                                                                                                                                                                                                                                                                                                                                                                                                                                                                                                                                                                                                                                                                                                                                                                                                                                                                                                                                                                                                                                                                                                                                                                                                                                                                                                                                                                                                                                                                                                                                                                                                                                                                                                                                                                                                                                                                                                                                                                                                                                                                                                                                                                                                                                                                                                                                                                                                                                                                                                                                                                                                                                                                                                                                                                                                                                                                                                                                                                                                                                                                                                                                                                                                                                                                                                                                                                                                                                                                                                                                                                                                                                                                                                                                                                                                                                                                                                                                                                                                                                                                                                                                                                                                                                                                                                                                                                                                                                                                                                                                                                                                                                                                                                                                                                                                                                                                                                                                                                                                                                                                                                                                                                                                                                                                                                                                                                                                                                                                                                                                                                                                                                                                                                                                                                                                                                                                                                                                                                                                                                                                                                                                                                                                                                                                                                                                                                                                                                                                                                                                                                                                                                                                                                                                                                                                                                                                                                                                                                                                                                                                                                                                                                                                                                                                                                                                                                                                                                                                                                                                                                                                                                                                                                                                                                                                                                                                                                                                                                                                                                                                                                                                                                                                                                                                                                                                                                                                                                                                                                                                                                                                                                                                                                                                                                                                                                                                                                                                                                                                                                                                                                                                                                                                                                                                                                                                                                                                                                                                                                                                                                                                                                                                                                                                                                                                                                                                                                                                                                                                                                                                                                                                                                                                                                                                                                                                                                                                                                                                                                                                                                                                                                                                                                                                                                                                                                                                                                                                                                                                                                                                                                                                                                                                                                                                                                                                                                                                                                                                                                                                                                                                                                                                                                                                                                                                                                                                                                                                                                                                                                                                                                                                                                                                                                                                                                                                                                                                                                                                                                                                                                                                                                                                                                                                                                                                                                                                                                                                                                                                                                                                                                                                                                                                                                                                                                                                                                                                                                                                                                                                                                                                                                                                                                                                                                                                                                                                                                                                                                                                                                                                                                                                                                                                                                                                                                                                                                                                                                                                                                                                                                                                                                                                                                                                                                                                                                                                                                                                                                                                                                                                                                                                                                                                                                                                                                                                                                                                                                                                                                                                                                                                                                                                                                                                                                                                                                                                                                                                                                                                                                                                                                                                                                                                                                                                                                                                                                                                                                                                                                                                                                                                                                                                                                                                                                                                                                                                                                                                                                                                                                                                                                                                                                                                                                                                                                                                                                                                                                                                                                                                                                                                                                                                                                                                                                                                                                                                                                                                                                                                                                                                                                                                                                                                                                                                                                                                                                                                                                                                                                                                                                                                                                                                                                                                                                                                                                                                                                                                                                                                                                                                                                                                                                                                                                                                                                                                                                                                                                                                                                                                                                                                                                                                                                                                                                                                                                                                                                                                                                                                                                                                                                                                                                                                                                                                                                                                                                                                                                                                                                                                                                                                                                                                                                                                                                                                                                                                                                                                                                                                                                                                                                                                                                                                                                                                                                                                                                                                                                                                                                                                                                                                                                                                                                                                                                                                                                                                                                                                                                                                                                                                                                                                                                                                                                                                                                                                                                                                                                                                                                                                                                                                                                                                                                                                                                                                                                                                                                                                                                                                                                                                                                                                                                                                                                                                                                                                                                                                                                                                                                                                                                                                                                                                                                                                                                                                                                                                                                                                                                                                                                                                                                                                                                                                                                                                                                                                                                                                                                                                                                                                                                                                                                                                                                                                                                                                                                                                                                                                                                                                                                                                                                                                                                                                                                                                                                                                                                                                                                                                                                                                                                                                                                                                                                                                                                                                                                                                                                                                                                                                                                                                                                                                                                                                                                                                                                                                                                                                                                                                                                                                                                                                                                                                                                                                                                                                                                                                                                                                                                                                                                                                                                                                                                                                                                                                                                                                                                                                                                                                                                                                                                                                                                                                                                                                                                                                                                                                                                                                                                                                                                                                                                                                                                                                                                                                                                                                                                                                                                                                                                                                                                                                                                                                                                                                                                                                                                                                                                                                                                                                                                                                                                                                                                                                                                                                                                                                                                                                                                                                                                                                                                                                                                                                                                                                                                                                                                                                                                                                                                                                                                                                                                                                                                                                                                                                                                                                                                                                                                                                                                                                                                                                                                                                                                                                                                                                                                                                                                                                                                                                                                                                                                                                                                                                                                                                                                                                                                                                                                                                                                                                                                                                                                                                                                                                                                                                                                                                                                                                                                                                                                                                                                                                                                                                                                                                                                                                                                                                                                                                                                                                                                                                                                                                                                                                                                                                                                                                                                                                                                                                                                                                                                                                                                                                                                                                                                                                                                                                                                                                                                                                                                                                                                                                                                                                                                                                                                                                                                                                                                                                                                                                                                                                                                                                                                                                                                                                                                                                                                                                                                                                                                                                                                                                                                                                                                                                                                                                                                                                                                                                                                                                                                                                                                                                                                                                                                                                                                                                                                                                                                                                                                                                                                                                                                                                                                                                                                                                                                                                                                                                                                                                                                                                                                                                                                                                                                                                                                                                                                                                                                                                                                                                                                                                                                                                                                                                                                                                                                                                                                                                                                                                                                                                                                                                                                                                                                                                                                                                                                                                                                                                                                                                                                                                                                                                                                                                                                                                                                                                                                                                                                                                                                                                                                                                                                                                                                                                                                                                                                                                                                                                                                                                                                                                                                                                                                                                                                                                                                                                                                                                                                                                                                                                                                                                                                                                                                                                                                                                                                                                                                                                                                                                                                                                                                                                                                                                                                                                                                                                                                                                                                                                                                                                                                                                                                                                                                                                                                                                                                                                                                                                                                                                                                                                                                                                                                                                                                                                                                                                                                                                                                                                                                                                                                                                                                                                                                                                                                                                                                                                                                                                                                                                                                                                                                                                                                                                                                                                                                                                                                                                                                                                                                                                                                                                                                                                                                                                                                                                                                                                                                                                                                                                                                                                                                                                                                                                                                                                                                                                                                                                                                                                                                                                                                                                                                                                                                                                                                                                                                                                                                                                                                                                                                                                                                                                                                                                                                                                                                                                                                                                                                                                                                                                                                                                                                                                                                                                                                                                                                                                                                                                                                                                                                                                                                                                                                                                                                                                                                                                                                                                                                                                                                                                                                                                                                                                                                                                                                                                                                                                                                                                                                                                                                                                                                                                                                                                                                                                                                                                                                                                                                                                                                                                                                                                                                                                                                                                                                                                                                                                                                                                                                                                                                                                                                                                                                                                                                                                                                                                                                                                                                                                                                                                                                                                                                                                                                                                                                                                                                                                                                                                                                                                                                                                                                                                                                                                                                                                                                                                                                                                                                                                                                                                                                                                                                                                                                                                                                                                                                                                                                                                                                                                                                                                                                                                                                                                                                                                                                                                                                                                                                                                                                                                                                                                                                                                                                                                                                                                                                                                                                                                                                                                                                                                                                                                                                                                                                                                                                                                                                                                                                                                                                                                                                                                                                                                                                                                                                                                                                                                                                                                                                                                                                                                                                                                                                                                                                                                                                                                                                                                                                                                                                                                                                                                                                                                                                                                                                                                                                                                                                                                                                                                                                                                                                                                                                                                                                                                                                                                                                                                                                                                                                                                                                                                                                                                                                                                                                                                                                                                                                                                                                                                                                                                                                                                                                                                                                                                                                                                                                                                                                                                                                                                                                                                                                                                                                                                                                                                                                                                                                                                                                                                                                                                                                                                                                                                                                                                                                                                                                                                                                                                                                                                                                                                                                                                                                                                                                                                                                                                                                                                                                                                                                                                                                                                                                                                                                                                                                                                                                                                                                                                                                                                                                                                                                                                                                                                                                                                                                                                                                                                                                                                                                                                                                                                                                                                                                                                                                                                                                                                                                                                                                                                                                                                                                                                                                                                                                                                                                                                                                                                                                                                                                                                                                                                                                                                                                                                                                                                                                                                                                                                                                                                                                                                                                                                                                                                                                                                                                                                                                                                                                                                                                                                                                                                                                                                                                                                                                                                                                                                                                                                                                                                                                                                                                                                                                                                                                                                                                                                                                                                                                                                                                                                                                                                                                                                                                                                                                                                                                                                                                                                                                                                                                                                                                                                                                                                                                                                                                                                                                                                                                                                                                                                                                                                                                                                                                                                                                                                                                                                                                                                                                                                                                                                                                                                                                                                                                                                                                                                                                                                                                                                                                                                                                                                                                                                                                                                                                                                                                                                                                                                                                                                                                                                                                                                                                                                                                                                                                                                                                                                                                                                                                                                                                                                                                                                                                                                                                                                                                                                                                                                                                                                                                                                                                                                                                                                                                                                                                                                                                                                                                                                                                                                                                                                                                                                                                                                                                                                                                                                                                                                                                                                                                                                                                                                                                                                                                                                                                                                                                                                                                                                                                                                                                                                                                                                                                                                                                                                                                                                                                                                                                                                                                                                                                                                                                                                                                                                                                                                                                                                                                                                                                                                                                                                                                                                                                                                                                                                                                                                                                                                                                                                                                                                                                                                                                                                                                                                                                                                                                                                                                                                                                                                                                                                                                                                                                                                                                                                                                                                                                                                                                                                                                                                                                                                                                                                                                                                                                                                                                                                                                                                                                                                                                                                                                                                                                                                                                                                                                                                                                                                                                                                                                                                                                                                                                                                                                                                                                                                                                                                                                                                                                                                                                                                                                                                                                                                                                                                                                                                                                                                                                                                                                                                                                                                                                                                                                                                                                                                                                                                                                                                                                                                                                                                                                                                                                                                                                                                                                                                                                                                                                                                                                                                                                                                                                                                                                                                                                                                                                                                                                                                                                                                                                                                                                                                                                                                                                                                                                                                                                                                                                                                                                                                                                                                                                                                                                                                                                                                                                                                                                                                                                                                                                                                                                                                                                                                                                                                                                                                                                                                                                                                                                                                                                                                                                                                                                                                                                                                                                                                                                                                                                                                                                                                                                                                                                                                                                                                                                                                                                                                                                                                                                                                                                                                                                                                                                                                                                                                                                                                                                                                                                                                                                                                                                                                                                                                                                                                                                                                                                                                                                                                                                                                                                                                                                                                                                                                                                                                                                                                                                                                                                                                                                                                                                                                                                                                                                                                                                                                                                                                                                                                                                                                                                                                                                                                                                                                                                                                                                                                                                                                                                                                                                                                                                                                                                                                                                                                                                                                                                                                                                                                                                                                                                                                                                                                                                                                                                                                                                                                                                                                                                                                                                                                                                                                                                                                                                                                                                                                                                                                                                                                                                                                                                                                                                                                                                                                                                                                                                                                                                                                                                                                                                                                                                                                                                                                                                                                                                                                                                                                                                                                                                                                                                                                                                                                                                                                                                                                                                                                                                                                                                                                                                                                                                                                                                                                                                                                                                                                                                                                                                                                                                                                                                                                                                                                                                                                                                                                                                                                                                                                                                                                                                                                                                                                                                                                                                                                                                                                                                                                                                                                                                                                                                                                                                                                                                                                                                                                                                                                                                                                                                                                                                                                                                                                                                                                                                                                                                                                                                                                                                                                                                                                                                                                                                                                                                                                                                                                                                                                                                                                                                                                                                                                                                                                                                                                                                                                                                                                                                                                                                                                                                                                                                                                                                                                                                                                                                                                                                                                                                                                                                                                                                                                                                                                                                                                                                                                                                                                                                                                                                                                                                                                                                                                                                                                                                                                                                                                                                                                                                                                                                                                                                                                                                                                                                                                                                                                                                                                                                                                                                                                                                                                                                                                                                                                                                                                                                                                                                                                                                                                                                                                                                                                                                                                                                                                                                                                                                                                                                                                                                                                                                                                                                                                                                                                                                                                                                                                                                                                                                                                                                                                                                                                                                                                                                                                                                                                                                                                                                                                                                                                                                                                                                                                                                                                                                                                                                                                                                                                                                                                                                                                                                                                                                                                                                                                                                                                                                                                                                                                                                                                                                                                                                                                                                                                                                                                                                                                                                                                                                                                                                                                                                                                                                                                                                                                                                                                                                                                                                                                                                                                                                                                                                                                                                                                                                                                                                                                                                                                                                                                                                                                                                                                                                                                                                                                                                                                                                                                                                                                                                                                                                                                                                                                                                                                                                                                                                                                                                                                                                                                                                                                                                                                                                                                                                                                                                                                                                                                                                                                                                                                                                                                                                                                                                                                                                                                                                                                                                                                                                                                                                                                                                                                                                                                                                                                                                                                                                                                                                                                                                                                                                                                                                                                                                                                                                                                                                                                                                                                                                                                                                                                                                                                                                                                                                                                                                                                                                                                                                                                                                                                                                                                                                                                                                                                                                                                                                                                                                                                                                                                                                                                                                                                                                                                                                                                                                                                                                                                                                                                                                                                                                                                                                                                                                                                                                                                                                                                                                                                                                                                                                                                                                                                                                                                                                                                                                                                                                                                                                                                                                                                                                                                                                                                                                                                                                                                                                                                                                                                                                                                                                                                                                                                                                                                                                                                                                                                                                                                                                                                                                                                                                                                                                                                                                                                                                                                                                                                                                                                                                                                                                                                                                                                                                                                                                                                                                                                                                                                                                                                                                                                                                                                                                                                                                                                                                                                                                                                                                                                                                                                                                                                                                                                                                                                                                                                                                                                                                                                                                                                                                                                                                                                                                                                                                                                                                                                                                                                                                                                                                                                                                                                                                                                                                                                                                                                                                                                                                                                                                                                                                                                                                                                                                                                                                                                                                                                                                                                                                                                                                                                                                                                                                                                                                                                                                                                                                                                                                                                                                                                                                                                                                                                                                                                                                                                                                                                                                                                                                                                                                                                                                                                                                                                                                                                                                                                                                                                                                                                                                                                                                                                                                                                                                                                                                                                                                                                                                                                                                                                                                                                                                                                                                                                                                                                                                                                                                                                                                                                                                                                                                                                                                                                                                                                                                                                                                                                                                                                                                                                                                                                                                                                                                                                                                                                                                                                                                                                                                                                                                                                                                                                                                                                                                                                                                                                                                                                                                                                                                                                                                                                                                                                                                                                                                                                                                                                                                                                                                                                                                                                                                                                                                                                                                                                                                                                                                                                                                                                                                                                                                                                                                                                                                                                                                                                                                                                                                                                                                                                                                                                                                                                                                                                                                                                                                                                                                                                                                                                                                                                                                                                                                                                                                                                                                                                                                                                                                                                                                                                                                                                                                                                                                                                                                                                                                                                                                                                                                                                                                                                                                                                                                                                                                                                                                                                                                                                                                                                                                                                                                                                                                                                                                                                                                                                                                                                                                                                                                                                                                                                                                                                                                                                                                                                                                                                                                                                                                                                                                                                                                                                                                                                                                                                                                                                                                                                                                                                                                                                                                                                                                                                                                                                                                                                                                                                                                                                                                                                                                                                                                                                                                                                                                                                                                                                                                                                                                                                                                                                                                                                                                                                                                                                                                                                                                                                                                                                                                                                                                                                                                                                                                                                                                                                                                                                                                                                                                                                                                                                                                                                                                                                                                                                                                                                                                                                                                                                                                                                                                                                                                                                                                                                                                                                                                                                                                                                                                                                                                                                                                                                                                                                                                                                                                                                                                                                                                                                                                                                                                                                                                                                                                                                                                                                                                                                                                                                                                                                                                                                                                                                                                                                                                                                                                                                                                                                                                                                                                                                                                                                                                                                                                                                                                                                                                                                                                                                                                                                                                                                                                                                                                                                                                                                                                                                                                                                                                                                                                                                                                                                                                                                                                                                                                                                                                                                                                                                                                                                                                                                                                                                                                                                                                                                                                                                                                                                                                                                                                                                                                                                                                                                                                                                                                                                                                                                                                                                                                                                                                                                                                                                                                                                                                                                                                                                                                                                                                                                                                                                                                                                                                                                                                                                                                                                                                                                                                                                                                                                                                                                                                                                                                                                                                                                                                                                                                                                                                                                                                                                                                                                                                                                                                                                                                                                                                                                                                                                                                                                                                                                                                                                                                                                                                                                                                                                                                                                                                                                                                                                                                                                                                                                                                                                                                                                                                                                                                                                                                                                                                                                                                                                                                                                                                                                                                                                                                                                                                                                                                                                                                                                                                                                                                                                                                                                                                                                                                                                                                                                                                                                                                                                                                                                                                                                                                                                                                                                                                                                                                                                                                                                                                                                                                                                                                                                                                                                                                                                                                                                                                                                                                                                                                                                                                                                                                                                                                                                                                                                                                                                                                                                                                                                                                                                                                                                                                                                                                                                                                                                                                                                                                                                                                                                                                                                                                                                                                                                                                                                                                                                                                                                                                                                                                                                                                                                                                                                                                                                                                                                                                                                                                                                                                                                                                                                                                                                                                                                                                                                                                                                                                                                                                                                                                                                                                                                                                                                                                                                                                                                                                                                                                                                                                                                                                                                                                                                                                                                                                                                                                                                                                                                                                                                                                                                                                                                                                                                                                                                                                                                                                                                                                                                                                                                                                                                                                                                                                                                                                                                                                                                                                                                                                                                                                                                                                                                                                                                                                                                                                                                                                                                                                                                                                                                                                                                                                                                                                                                                                                                                                                                                                                                                                                                                                                                                                                                                                                                                                                                                                                                                                                                                                                                                                                                                                                                                                                                                                                                                                                                                                                                                                                                                                                                                                                                                                                                                                                                                                                                                                                                                                                                                                                                                                                                                                                                                                                                                                                                                                                                                                                                                                                                                                                                                                                                                                                                                                                                                                                                                                                                                                                                                                                                                                                                                                                                                                                                                                                                                                                                                                                                                                                                                                                                                                                                                                                                                                                                                                                                                                                                                                                                                                                                                                                                                                                                                                                                                                                                                                                                                                                                                                                                                                                                                                                                                                                                                                                                                                                                                                                                                                                                                                                                                                                                                                                                                                                                                                                                                                                                                                                                                                                                                                                                                                                                                                                                                                                                                                                                                                                                                                                                                                                                                                                                                                                                                                                                                                                                                                                                                                                                                                                                                                                                                                                                                                                                                                                                                                                                                                                                                                                                                                                                                                                                                                                                                                                                                                                                                                                                                                                                                                                                                                                                                                                                                                                                                                                                                                                                                                                                                                                                                                                                                                                                                                                                                                                                                                                                                                                                                                                                                                                                                                                                                                                                                                                                                                                                                                                                                                                                                                                                                                                                                                                                                                                                                                                                                                                                                                                                                                                                                                                                                                                                                                                                                                                                                                                                                                                                                                                                                                                                                                                                                                                                                                                                                                                                                                                                                                                                                                                                                                                                                                                                                                                                                                                                                                                                                                                                                                                                                                                                                                                                                                                                                                                                                                                                                                                                                                                                                                                                                                                                                                                                                                                                                                                                                                                                                                                                                                                                                                                                                                                                                                                                                                                                                                                                                                                                                                                                                                                                                                                                                                                                                                                                                                                                                                                                                                                                                                                                                                                                                                                                                                                                                                                                                                                                                                                                                                                                                                                                                                                                                                                                                                                                                                                                                                                                                                                                                                                                                                                                                                                                                                                                                                                                                                                                                                                                                                                                                                                                                                                                                                                                                                                                                                                                                                                                                                                                                                                                                                                                                                                                                                                                                                                                                                                                                                                                                                                                                                                                                                                                                                                                                                                                                                                                                                                                                                                                                                                                                                                                                                                                                                                                                                                                                                                                                                                                                                                                                                                                                                                                                                                                                                                                                                                                                                                                                                                                                                                                                                                                                                                                                                                                                                                                                                                                                                                                                                                                                                                                                                                                                                                                                                                                                                                                                                                                                                                                                                                                                                                                                                                                                                                                                                                                                                                                                                                                                                                                                                                                                                                                                                                                                                                                                                                                                                                                                                                                                                                                                                                                                                                                                                                                                                                                                                                                                                                                                                                                                                                                                                                                                                                                                                                                                                                                                                                                                                                                                                                                                                                                                                                                                                                                                                                                                                                                                                                                                                                                                                                                                                                                                                                                                                                                                                                                                                                                                                                                                                                                                                                                                                                                                                                                                                                                                                                                                                                                                                                                                                                                                                                                                                                                                                                                                                                                                                                                                                                                                                                                                                                                                                                                                                                                                                                                                                                                                                                                                                                                                                                                                                                                                                                                                                                                                                                                                                                                                                                                                                                                                                                                                                                                                                                                                                                                                                                                                                                                                                                                                                                                                                                                                                                                                                                                                                                                                                                                                                                                                                                                                                                                                                                                                                                                                                                                                                                                                                                                                                                                                                                                                                                                                                                                                                                                                                                                                                                                                                                                                                                                                                                                                                                                                                                                                                                                                                                                                                                                                                                                                                                                                                                                                                                                                                                                                                                                                                                                                                                                                                                                                                                                                                                                                                                                                                                                                                                                                                                                                                                                                                                                                                                                                                                                                                                                                                                                                                                                                                                                                                                                                                                                                                                                                                                                                                                                                                                                                                                                                                                                                                                                                                                                                                                                                                                                                                                                                                                                                                                                                                                                                                                                                                                                                                                                                                                                                                                                                                                                                                                                                                                                                                                                                                                                                                                                                                                                                                                                                                                                                                                                                                                                                                                                                                                                                                                                                                                                                                                                                                                                                                                                                                                                                                                                                                                                                                                                                                                                                                                                                                                                                                                                                                                                                                                                                                                                                                                                                                                                                                                                                                                                                                                                                                                                                                                                                                                                                                                                                                                                                                                                                                                                                                                                                                                                                                                                                                                                                                                                                                                                                                                                                                                                                                                                                                                                                                                                                                                                                                                                                                                                                                                                                                                                                                                                                                                                                                                                                                                                                                                                                                                                                                                                                                                                                                                                                                                                                                                                                                                                                                                                                                                                                                                                                                                                                                                                                                                                                                                                                                                                                                                                                                                                                                                                                                                                                                                                                                                                                                                                                                                                                                                                                                                                                                                                                                                                                                                                                                                                                                                                                                                                                                                                                                                                                                                                                                                                                                                                                                                                                                                                                                                                                                                                                                                                                                                                                                                                                                                                                                                                                                                                                                                                                                                                                                                                                                                                                                                                                                                                                                                                                                                                                                                                                                                                                                                                                                                                                                                                                                                                                                                                                                                                                                                                                                                                                                                                                                                                                                                                                                                                                                                                                                                                                                                                                                                                                                                                                                                                                                                                                                                                                                                                                                                                                                                                                                                                                                                                                                                                                                                                                                                                                                                                                                                                                                                                                                                                                                                                                                                                                                                                                                                                                                                                                                                                                                                                                                                                                                                                                                                                                                                                                                                                                                                                                                                                                                                                                                                                                                                                                                                                                                                                                                                                                                                                                                                                                                                                                                                                                                                                                                                                                                                                                                                                                                                                                                                                                                                                                                                                                                                                                                                                                                                                                                                                                                                                                                                                                                                                                                                                                                                                                                                                                                                                                                                                                                                                                                                                                                                                                                                                                                                                                                                                                                                                                                                                                                                                                                                                                                                                                                                                                                                                                                                                                                                                                                                                                                                                                                                                                                                                                                                                                                                                                                                                                                                                                                                                                                                                                                                                                                                                                                                                                                                                                                                                                                                                                                                                                                                                                                                                                                                                                                                                                                                                                                                                                                                                                                                                                                                                                                                                                                                                                                                                                                                                                                                                                                                                                                                                                                                                                                                                                                                                                                                                                                                                                                                                                                                                                                                                                                                                                                                                                                                                                                                                                                                                                                                                                                                                                                                                                                                                                                                                                                                                                                                                                                                                                                                                                                                                                                                                                                                                                                                                                                                                                                                                                                                                                                                                                                                                                                                                                                                                                                                                                                                                                                                                                                                                                                                                                                                                                                                                                                                                                                                                                                                                                                                                                                                                                                                                                                                                                                                                                                                                                                                                                                                                                                                                                                                                                                                                                                                                                                                                                                                                                                                                                                                                                                                                                                                                                                                                                                                                                                                                                                                                                                                                                                                                                                                                                                                                                                                                                                                                                                                                                                                                                                                                                                                                                                                                                                                                                                                                                                                                                                                                                                                                                                                                                                                                                                                                                                                                                                                                                                                                                                                                                                                                                                                                                                                                                                                                                                                                                                                                                                                                                                                                                                                                                                                                                                                                                                                                                                                                                                                                                                                                                                                                                                                                                                                                                                                                                                                                                                                                                                                                                                                                                                                                                                                                                                                                                                                                                                                                                                                                                                                                                                                                                                                                                                                                                                                                                                                                                                                                                                                                                                                                                                                                                                                                                                                                                                                                                                                                                                                                                                                                                                                                                                                                                                                                                                                                                                                                                                                                                                                                                                                                                                                                                                                                                                                                                                                                                                                                                                                                                                                                                                                                                                                                                                                                                                                                                                                                                                                                                                                                                                                                                                                                                                                                                                                                                                                                                                                                                                                                                                                                                                                                                                                                                                                                                                                                                                                                                                                                                                                                                                                                                                                                                                                                                                                                                                                                                                                                                                                                                                                                                                                                                                                                                                                                                                                                                                                                                                                                                                                                                                                                                                                                                                                                                                                                                                                                                                                                                                                                                                                                                                                                                                                                                                                                                                                                                                                                                                                                                                                                                                                                                                                                                                                                                                                                                                                                                                                                                                                                                                                                                                                                                                                                                                                                                                                                                                                                                                                                                                                                                                                                                                                                                                                                                                                                                                                                                                                                                                                                                                                                                                                                                                                                                                                                                                                                                                                                                                                                                                                                                                                                                                                                                                                                                                                                                                                                                                                                                                                                                                                                                                                                                                                                                                                                                                                                                                                                                                                                                                                                                                                                                                                                                                                                                                                                                                                                                                                                                                                                                                                                                                                                                                                                                                                                                                                                                                                                                                                                                                                                                                                                                                                                                                                                                                                                                                                                                                                                                                                                                                                                                                                                                                                                                                                                                                                                                                                                                                                                                                                                                                                                                                                                                                                                                                                                                                                                                                                                                                                                                                                                                                                                                                                                                                                                                                                                                                                                                                                                                                                                                                                                                                                                                                                                                                                                                                                                                                                                                                                                                                                                                                                                                                                                                                                                                                                                                                                                                                                                                                                                                                                                                                                                                                                                                                                                                                                                                                                                                                                                                                                                                                                                                                                                                                                                                                                                                                                                                                                                                                                                                                                                                                                                                                                                                                                                                                                                                                                                                                                                                                                                                                                                                                                                                                                                                                                                                                                                                                                                                                                                                                                                                                                                                                                                                                                                                                                                                                                                                                                                                                                                                                                                                                                                                                                                                                                                                                                                                                                                                                                                                                                                                                                                                                                                                                                                                                                                                                                                                                                                                                                                                                                                                                                                                                                                                                                                                                                                                                                                                                                                                                                                                                                                                                                                                                                                                                                                                                                                                                                                                                                                                                                                                                                                                                                                                                                                                                                                                                                                                                                                                                                                                                                                                                                                                                                                                                                                                                                                                                                                                                                                                                                                                                                                                                                                                                                                                                                                                                                                                                                                                                                                                                                                                                                                                                                                                                                                                                                                                                                                                                                                                                                                                                                                                                                                                                                                                                                                                                                                                                                                                                                                                                                                                                                                                                                                                                                                                                                                                                                                                                                                                                                                                                                                                                                                                                                                                                                                                                                                                                                                                                                                                                                                                                                                                                                                                                                                                                                                                                                                                                                                                                                                                                                                                                                                                                                                                                                                                                                                                                                                                                                                                                                                                                                                                                                                                                                                                                                                                                                                                                                                                                                                                                                                                                                                                                                                                                                                                                                                                                                                                                                                                                                                                                                                                                                                                                                                                                                                                                                                                                                                                                                                                                                                                                                                                                                                                                                                                                                                                                                                                                                                                                                                                                                                                                                                                                                                                                                                                                                                                                                                                                                                                                                                                                                                                                                                                                                                                                                                                                                                                                                                                                                                                                                                                                                                                                                                                                                                                                                                                                                                                                                                                                                                                                                                                                                                                                                                                                                                                                                                                                                                                                                                                                                                                                                                                                                                                                                                                                                                                                                                                                                                                                                                                                                                                                                                                                                                                                                                                                                                                                                                                                                                                                                                                                                                                                                                                                                                                                                                                                                                                                                                                                                                                                                                                                                                                                                                                                                                                                                                                                                                                                                                                                                                                                                                                                                                                                                                                                                                                                                                                                                                                                                                                                                                                                                                                                                                                                                                                                                                                                                                                                                                                                                                                                                                                                                                                                                                                                                                                                                                                                                                                                                                                                                                                                                                                                                                                                                                                                                                                                                                                                                                                                                                                                                                                                                                                                                                                                                                                                                                                                                                                                                                                                                                                                                                                                                                                                                                                                                                                                                                                                                                                                                                                                                                                                                                                                                                                                                                                                                                                                                                                                                                                                                                                                                                                                                                                                                                                                                                                                                                                                                                                                                                                                                                                                                                                                                                                                                                                                                                                                                                                                                                                                                                                                                                                                                                                                                                                                                                                                                                                                                                                                                                                                                                                                                                                                                                                                                                                                                                                                                                                                                                                                                                                                                                                                                                                                                                                                                                                                                                                                                                                                                                                                                                                                                                                                                                                                                                                                                                                                                                                                                                                                                                                                                                                                                                                                                                                                                                                                                                                                                                                                                                                                                                                                                                                                                                                                                                                                                                                                                                                                                                                                                                                                                                                                                                                                                                                                                                                                                                                                                                                                                                                                                                                                                                                                                                                                                                                                                                                                                                                                                                                                                                                                                                                                                                                                                                                                                                                                                                                                                                                                                                                                                                                                                                                                                                                                                                                                                                                                                                                                                                                                                                                                                                                                                                                                                                                                                                                                                                                                                                                                                                                                                                                                                                                                                                                                                                                                                                                                                                                                                                                                                                                                                                                                                                                                                                                                                                                                                                                                                                                                                                                                                                                                                                                                                                                                                                                                                                                                                                                                                                                                                                                                                                                                                                                                                                                                                                                                                                                                                                                                                                                                                                                                                                                                                                                                                                                                                                                                                                                                                                                                                                                                                                                                                                                                                                                                                                                                                                                                                                                                                                                                                                                                                                                                                                                                                                                                                                                                                                                                                                                                                                                                                                                                                                                                                                                                                                                                                                                                                                                                                                                                                                                                                                                                                                                                                                                                                                                                                                                                                                                                                                                                                                                                                                                                                                                                                                                                                                                                                                                                                                                                                                                                                                                                                                                                                                                                                                                                                                                                                                                                                                                                                                                                                                                                                                                                                                                                                                                                                                                                                                                                                                                                                                                                                                                                                                                                                                                                                                                                                                                                                                                                                                                                                                                                                                                                                                                                                                                                                                                                                                                                                                                                                                                                                                                                                                                                                                                                                                                                                                                                                                                                                                                                                                                                                                                                                                                                                                                                                                                                                                                                                                                                                                                                                                                                                                                                                                                                                                                                                                                                                                                                                                                                                                                                                                                                                                                                                                                                                                                                                                                                                                                                                                                                                                                                                                                                                                                                                                                                                                                                                                                                                                                                                                                                                                                                                                                                                                                                                                                                                                                                                                                                                                                                                                                                                                                                                                                                                                                                                                                                                                                                                                                                                                                                                                                                                                                                                                                                                                                                                                                                                                                                                                                                                                                                                                                                                                                                                                                                                                                                                                                                                                                                                                                                                                                                                                                                                                                                                                                                                                                                                                                                                                                                                                                                                                                                                                                                                                                                                                                                                                                                                                                                                                                                                                                                                                                                                                                                                                                                                                                                                                                                                                                                                                                                                                                                                                                                                                                                                                                                                                                                                                                                                                                                                                                                                                                                                                                                                                                                                                                                                                                                                                                                                                                                                                                                                                                                                                                                                                                                                                                                                                                                                                                                                                                                                                                                                                                                                                                                                                                                                                                                                                                                                                                                                                                                                                                                                                                                                                                                                                                                                                                                                                                                                                                                                                                                                                                                                                                                                                                                                                                                                                                                                                                                                                                                                                                                                                                                                                                                                                                                                                                                                                                                                                                                                                                                                                                                                                                                                                                                                                                                                                                                                                                                                                                                                                                                                                                                                                                                                                                                                                                                                                                                                                                                                                                                                                                                                                                                                                                                                                                                                                                                                                                                                                                                                                                                                                                                                                                                                                                                                                                                                                                                                                                                                                                                                                                                                                                                                                                                                                                                                                                                                                                                                                                                                                                                                                                                                                                                                                                                                                                                                                                                                                                                                                                                                                                                                                                                                                                                                                                                                                                                                                                                                                                                                                                                                                                                                                                                                                                                                                                                                                                                                                                                                                                                                                                                                                                                                                                                                                                                                                                                                                                                                                                                                                                                                                                                                                                                                                                                                                                                                                                                                                                                                                                                                                                                                                                                                                                                                                                                                                                                                                                                                                                                                                                                                                                                                                                                                                                                                                                                                                                                                                                                                                                                                                                                                                                                                                                                                                                                                                                                                                                                                                                                                                                                                                                                                                                                                                                                                                                                                                                                                                                                                                                                                                                                                                                                                                                                                                                                                                                                                                                                                                                                                                                                                                                                                                                                                                                                                                                                                                                                                                                                                                                                                                                                                                                                                                                                                                                                                                                                                                                                                                                                                                                                                                                                                                                                                                                                                                                                                                                                                                                                                                                                                                                                                                                                                                                                                                                                                                                                                                                                                                                                                                                                                                                                                                                                                                                                                                                                                                                                                                                                                                                                                                                                                                                                                                                                                                                                                                                                                                                                                                                                                                                                                                                                                                                                                                                                                                                                                                                                                                                                                                                                                                                                                                                                                                                                                                                                                                                                                                                                                                                                                                                                                                                                                                                                                                                                                                                                                                                                                                                                                                                                                                                                                                                                                                                                                                                                                                                                                                                                                                                                                                                                                                                                                                                                                                                                                                                                                                                                                                                                                                                                                                                                                                                                                                                                                                                                                                                                                                                                                                                                                                                                                                                                                                                                                                                                                                                                                                                                                                                                                                                                                                                                                                                                                                                                                                                                                                                                                                                                                                                                                                                                                                                                                                                                                                                                                                                                                                                                                                                                                                                                                                                                                                                                                                                                                                                                                                                                                                                                                                                                                                                                                                                                                                                                                                                                                                                                                                                                                                                                                                                                                                                                                                                                                                                                                                                                                                                                                                                                                                                                                                                                                                                                                                                                                                                                                                                                                                                                                                                                                                                                                                                                                                                                                                                                                                                                                                                                                                                                                                                                                                                                                                                                                                                                                                                                                                                                                                                                                                                                                                                                                                                                                                                                                                                                                                                                                                                                                                                                                                                                                                                                                                                                                                                                                                                                                                                                                                                                                                                                                                                                                                                                                                                                                                                                                                                                                                                                                                                                                                                                                                                                                                                                                                                                                                                                                                                                                                                                                                                                                                                                                                                                                                                                                                                                                                                                                                                                                                                                                                                                                                                                                                                                                                                                                                                                                                                                                                                                                                                                                                                                                                                                                                                                                                                                                                                                                                                                                                                                                                                                                                                                                                                                                                                                                                                                                                                                                                                                                                                                                                                                                                                                                                                                                                                                                                                                                                                                                                                                                                                                                                                                                                                                                                                                                                                                                                                                                                                                                                                                                                                                                                                                                                                                                                                                                                                                                                                                                                                                                                                                                                                                                                                                                                                                                                                                                                                                                                                                                                                                                                                                                                                                                                                                                                                                                                                                                                                                                                                                                                                                                                                                                                                                                                                                                                                                                                                                                                                                                                                                                                                                                                                                                                                                                                                                                                                                                                                                                                                                                                                                                                                                                                                                                                                                                                                                                                                                                                                                                                                                                                                                                                                                                                                                                                                                                                                                                                                                                                                                                                                                                                                                                                                                                                                                                                                                                                                                                                                                                                                                                                                                                                                                                                                                                                                                                                                                                                                                                                                                                                                                                                                                                                                                                                                                                                                                                                                                                                                                                                                                                                                                                                                                                                                                                                                                                                                                                                                                                                                                                                                                                                                                                                                                                                                                                                                                                                                                                                                                                                                                                                                                                                                                                                                                                                                                                                                                                                                                                                                                                                                                                                                                                                                                                                                                                                                                                                                                                                                                                                                                                                                                                                                                                                                                                                                                                                                                                                                                                                                                                                                                                                                                                                                                                                                                                                                                                                                                                                                                                                                                                                                                                                                                                                                                                                                                                                                                                                                                                                                                                                                                                                                                                                                                                                                                                                                                                                                                                                                                                                                                                                                                                                                                                                                                                                                                                                                                                                                                                                                                                                                                                                                                                                                                                                                                                                                                                                                                                                                                                                                                                                                                                                                                                                                                                                                                                                                                                                                                                                                                                                                                                                                                                                                                                                                                                                                                                                                                                                                                                                                                                                                                                                                                                                                                                                                                                                                                                                                                                                                                                                                                                                                                                                                                                                                                                                                                                                                                                                                                                                                                                                                                                                                                                                                                                                                                                                                                                                                                                                                                                                                                                                                                                                                                                                                                                                                                                                                                                                                                                                                                                                                                                                                                                                                                                                                                                                                                                                                                                                                                                                                                                                                                                                                                                                                                                                                                                                                                                                                                                                                                                                                                                                                                                                                                                                                                                                                                                                                                                                                                                                                                                                                                                                                                                                                                                                                                                                                                                                                                                                                                                                                                                                                                                                                                                                                                                                                                                                                                                                                                                                                                                                                                                                                                                                                                                                                                                                                                                                                                                                                                                                                                                                                                                                                                                                                                                                                                                                                                                                                                                                                                                                                                                                                                                                                                                                                                                                                                                                                                                                                                                                                                                                                                                                                                                                                                                                                                                                                                                                                                                                                                                                                                                                                                                                                                                                                                                                                                                                                                                                                                                                                                                                                                                                                                                                                                                                                                                                                                                                                                                                                                                                                                                                                                                                                                                                                                                                                                                                                                                                                                                                                                                                                                                                                                                                                                                                                                                                                                                                                                                                                                                                                                                                                                                                                                                                                                                                                                                                                                                                                                                                                                                                                                                                                                                                                                                                                                                                                                                                                                                                                                                                                                                                                                                                                                                                                                                                                                                                                                                                                                                                                                                                                                                                                                                                                                                                                                                                                                                                                                                                                                                                                                                                                                                                                                                                                                                                                                                                                                                                                                                                                                                                                                                                                                                                                                                                                                                                                                                                                                                                                                                                                                                                                                                                                                                                                                                                                                                                                                                                                                                                                                                                                                                                                                                                                                                                                                                                                                                                                                                                                                                                                                                                                                                                                                                                                                                                                                                                                                                                                                                                                                                                                                                                                                                                                                                                                                                                                                                                                                                                                                                                                                                                                                                                                                                                                                                                                                                                                                                                                                                                                                                                                                                                                                                                                                                                                                                                                                                                                                                                                                                                                                                                                                                                                                                                                                                                                                                                                                                                                                                                                                                                                                                                                                                                                                                                                                                                                                                                                                                                                                                                                                                                                                                                                                                                                                                                                                                                                                                                                                                                                                                                                                                                                                                                                                                                                                                                                                                                                                                                                                                                                                                                                                                                                                                                                                                                                                                                                                                                                                                                                                                                                                                                                                                                                                                                                                                                                                                                                                                                                                                                                                                                                                                                                                                                                                                                                                                                                                                                                                                                                                                                                                                                                                                                                                                                                                                                                                                                                                                                                                                                                                                                                                                                                                                                                                                                                                                                                                                                                                                                                                                                                                                                                                                                                                                                                                                                                                                                                                                                                                                                                                                                                                                                                                                                                                                                                                                                                                                                                                                                                                                                                                                                                                                                                                                                                                                                                                                                                                                                                                                                                                                                                                                                                                                                                                                                                                                                                                                                                                                                                                                                                                                                                                                                                                                                                                                                                                                                                                                                                                                                                                                                                                                                                                                                                                                                                                                                                                                                                                                                                                                                                                                                                                                                                                                                                                                                                                                                                                                                                                                                                                                                                                                                                                                                                                                                                                                                                                                                                                                                                                                                                                                                                                                                                                                                                                                                                                                                                                                                                                                                                                                                                                                                                                                                                                                                                                                                                                                                                                                                                                                                                                                                                                                                                                                                                                                                                                                                                                                                                                                                                                                                                                                                                                                                                                                                                                                                                                                                                                                                                                                                                                                                                                                                                                                                                                                                                                                                                                                                                                                                                                                                                                                                                                                                                                                                                                                                                                                                                                                                                                                                                                                                                                                                                                                                                                                                                                                                                                                                                                                                                                                                                                                                                                                                                                                                                                                                                                                                                                                                                                                                                                                                                                                                                                                                                                                                                                                                                                                                                                                                                                                                                                                                                                                                                                                                                                                                                                                                                                                                                                                                                                                                                                                                                                                                                                                                                                                                                                                                                                                                                                                                                                                                                                                                                                                                                                                                                                                                                                                                                                                                                                                                                                                                                                                                                                                                                                                                                                                                                                                                                                                                                                                                                                                                                                                                                                                                                                                                                                                                                                                                                                                                                                                                                                                                                                                                                                                                                                                                                                                                                                                                                                                                                                                                                                                                                                                                                                                                                                                                                                                                                                                                                                                                                                                                                                                                                                                                                                                                                                                                                                                                                                                                                                                                                                                                                                                                                                                                                                                                                                                                                                                                                                                                                                                                                                                                                                                                                                                                                                                                                                                                                                                                                                                                                                                                                                                                                                                                                                                                                                                                                                                                                                                                                                                                                                                                                                                                                                                                                                                                                                                                                                                                                                                                                                                                                                                                                                                                                                                                                                                                                                                                                                                                                                                                                                                                                                                                                                                                                                                                                                                                                                                                                                                                                                                                                                                                                                                                                                                                                                                                                                                                                                                                                                                                                                                                                                                                                                                                                                                                                                                                                                                                                                                                                                                                                                                                                                                                                                                                                                                                                                                                                                                                                                                                                                                                                                                                                                                                                                                                                                                                                                                                                                                                                                                                                                                                                                                                                                                                                                                                                                                                                                                                                                                                                                                                                                                                                                                                                                                                                                                                                                                                                                                                                                                                                                                                                                                                                                                                                                                                                                                                                                                                                                                                                                                                                                                                                                                                                                                                                                                                                                                                                                                                                                                                                                                                                                                                                                                                                                                                                                                                                                                                                                                                                                                                                                                                                                                                                                                                                                                                                                                                                                                                                                                                                                                                                                                                                                                                                                                                                                                                                                                                                                                                                                                                                                                                                                                                                                                                                                                                                                                                                                                                                                                                                                                                                                                                                                                                                                                                                                                                                                                                                                                                                                                                                                                                                                                                                                                                                                                                                                                                                                                                                                                                                                                                                                                                                                                                                                                                                                                                                                                                                                                                                                                                                                                                                                                                                                                                                                                                                                                                                                                                                                                                                                                                                                                                                                                                                                                                                                                                                                                                                                                                                                                                                                                                                                                                                                                                                                                                                                                                                                                                                                                                                                                                                                                                                                                                                                                                                                                                                                                                                                                                                                                                                                                                                                                                                                                                                                                                                                                                                                                                                                                                                                                                                                                                                                                                                                                                                                                                                                                                                                                                                                                                                                                                                                                                                                                                                                                                                                                                                                                                                                                                                                                                                                                                                                                                                                                                                                                                                                                                                                                                                                                                                                                                                                                                                                                                                                                                                                                                                                                                                                                                                                                                                                                                                                                                                                                                                                                                                                                                                                                                                                                                                                                                                                                                                                                                                                                                                                                                                                                                                                                                                                                                                                                                                                                                                                                                                                                                                                                                                                                                                                                                                                                                                                                                                                                                                                                                                                                                                                                                                                                                                                                                                                                                                                                                                                                                                                                                                                                                                                                                                                                                                                                                                                                                                                                                                                                                                                                                                                                                                                                                                                                                                                                                                                                                                                                                                                                                                                                                                                                                                                                                                                                                                                                                                                                                                                                                                                                                                                                                                                                                                                                                                                                                                                                                                                                                                                                                                                                                                                                                                                                                                                                                                                                                                                                                                                                                                                                                                                                                                                                                                                                                                                                                                                                                                                                                                                                                                                                                                                                                                                                                                                                                                                                                                                                                                                                                                                                                                                                                                                                                                                                                                                                                                                                                                                                                                                                                                                                                                                                                                                                                                                                                                                                                                                                                                                                                                                                                                                                                                                                                                                                                                                                                                                                                                                                                                                                                                                                                                                                                                                                                                                                                                                                                                                                                                                                                                                                                                                                                                                                                                                                                                                                                                                                                                                                                                                                                                                                                                                                                                                                                                                                                                                                                                                                                                                                                                                                                                                                                                                                                                                                                                                                                                                                                                                                                                                                                                                                                                                                                                                                                                                                                                                                                                                                                                                                                                                                                                                                                                                                                                                                                                                                                                                                                                                                                                                                                                                                                                                                                                                                                                                                                                                                                                                                                                                                                                                                                                                                                                                                                                                                                                                                                                                                                                                                                                                                                                                                                                                                                                                                                                                                                                                                                                                                                                                                                                                                                                                                                                                                                                                                                                                                                                                                                                                                                                                                                                                                                                                                                                                                                                                                                                                                                                                                                                                                                                                                                                                                                                                                                                                                                                                                                                                                                                                                                                                                                                                                                                                                                                                                                                                                                                                                                                                                                                                                                                                                                                                                                                                                                                                                                                                                                                                                                                                                                                                                                                                                                                                                                                                                                                                                                                                                                                                                                                                                                                                                                                                                                                                                                                                                                                                                                                                                                                                                                                                                                                                                                                                                                                                                                                                                                                                                                                                                                                                                                                                                                                                                                                                                                                                                                                                                                                                                                                                                                                                                                                                                                                                                                                                                                                                                                                                                                                                                                                                                                                                                                                                                                                                                                                                                                                                                                                                                                                                                                                                                                                                                                                                                                                                                                                                                                                                                                                                                                                                                                                                                                                                                                                                                                                                                                                                                                                                                                                                                                                                                                                                                                                                                                                                                                                                                                                                                                                                                                                                                                                                                                                                                                                                                                                                                                                                                                                                                                                                                                                                                                                                                                                                                                                                                                                                                                                                                                                                                                                                                                                                                                                                                                                                                                                                                                                                                                                                                                                                                                                                                                                                                                                                                                                                                                                                                                                                                                                                                                                                                                                                                                                                                                                                                                                                                                                                                                                                                                                                                                                                                                                                                                                                                                                                                                                                                                                                                                                                                                                                                                                                                                                                                                                                                                                                                                                                                                                                                                                                                                                                                                                                                                                                                                                                                                                                                                                                                                                                                                                                                                                                                                                                                                                                                                                                                                                                                                                                                                                                                                                                                                                                                                                                                                                                                                                                                                                                                                                                                                                                                                                                                                                                                                                                                                                                                                                                                                                                                                                                                                                                                                                                                                                                                                                                                                                                                                                                                                                                                                                                                                                                                                                                                                                                                                                                                                                                                                                                                                                                                                                                                                                                                                                                                                                                                                                                                                                                                                                                                                                                                                                                                                                                                                                                                                                                                                                                                                                                                                                                                                                                                                                                                                                                                                                                                                                                                                                                                                                                                                                                                                                                                                                                                                                                                                                                                                                                                                                                                                                   ome/stero141/Projects/MicrocontrollersProjects/opentx-release-2.3.15/radio/src/thirdparty/Lua/src/lparser.c ****   FuncState *fs = ls->fs;
 5121              		.loc 1 501 3 view .LVU1283
 5122              	.LBE331:
 5123              	.LBE330:
 5124              	@ /home/stero141/Projects/MicrocontrollersProjects/opentx-release-2.3.15/radio/src/thirdparty/Lua/s
 789:/home/stero141/Projects/MicrocontrollersProjects/opentx-release-2.3.15/radio/src/thirdparty/Lua/src/lparser.c ****   /* body ->  `(' parlist `)' block END */
 5125              		.loc 1 789 69 is_stmt 0 view .LVU1284
 5126 0000 2DE9F04F 		push	{r4, r5, r6, r7, r8, r9, r10, fp, lr}	@
 5127              	.LCFI55:
 5128              		.cfi_def_cfa_offset 36
 5129              		.cfi_offset 4, -36
 5130              		.cfi_offset 5, -32
 5131              		.cfi_offset 6, -28
 5132              		.cfi_offset 7, -24
 5133              		.cfi_offset 8, -20
 5134              		.cfi_offset 9, -16
 5135              		.cfi_offset 10, -12
 5136              		.cfi_offset 11, -8
 5137              		.cfi_offset 14, -4
 5138              	.LBB337:
 5139              	.LBB333:
 5140              	@ /home/stero141/Projects/MicrocontrollersProjects/opentx-release-2.3.15/radio/src/thirdparty/Lua/s
 502:/home/stero141/Projects/MicrocontrollersProjects/opentx-release-2.3.15/radio/src/thirdparty/Lua/src/lparser.c ****   Proto *f = fs->f;  /* prototype of current function */
 5141              		.loc 1 502 14 view .LVU1285
 5142 0004 D0E90C9B 		ldrd	r9, fp, [r0, #48]	@ fs, L, ls,
 5143              	.LVL459:
 503:/home/stero141/Projects/MicrocontrollersProjects/opentx-release-2.3.15/radio/src/thirdparty/Lua/src/lparser.c ****   if (fs->np >= f->sizep) {
 5144              		.loc 1 503 3 is_stmt 1 view .LVU1286
 5145              	@ /home/stero141/Projects/MicrocontrollersProjects/opentx-release-2.3.15/radio/src/thirdparty/Lua/s
 503:/home/stero141/Projects/MicrocontrollersProjects/opentx-release-2.3.15/radio/src/thirdparty/Lua/src/lparser.c ****   if (fs->np >= f->sizep) {
 5146              		.loc 1 503 10 is_stmt 0 view .LVU1287
 5147 0008 D9F80050 		ldr	r5, [r9]	@ f, fs_40->f
 5148              	.LVL460:
 504:/home/stero141/Projects/MicrocontrollersProjects/opentx-release-2.3.15/radio/src/thirdparty/Lua/src/lparser.c ****     int oldsize = f->sizep;
 5149              		.loc 1 504 3 is_stmt 1 view .LVU1288
 5150              	.LBE333:
 5151              	.LBE337:
 5152              	@ /home/stero141/Projects/MicrocontrollersProjects/opentx-release-2.3.15/radio/src/thirdparty/Lua/s
 789:/home/stero141/Projects/MicrocontrollersProjects/opentx-release-2.3.15/radio/src/thirdparty/Lua/src/lparser.c ****   /* body ->  `(' parlist `)' block END */
 5153              		.loc 1 789 69 is_stmt 0 view .LVU1289
 5154 000c 9846     		mov	r8, r3	@ line, tmp253
 5155              	.LBB338:
 5156              	.LBB334:
 5157              	@ /home/stero141/Projects/MicrocontrollersProjects/opentx-release-2.3.15/radio/src/thirdparty/Lua/s
 504:/home/stero141/Projects/MicrocontrollersProjects/opentx-release-2.3.15/radio/src/thirdparty/Lua/src/lparser.c ****     int oldsize = f->sizep;
ARM GAS  /tmp/cc3ioNp3.s 			page 142


 5158              		.loc 1 504 18 view .LVU1290
 5159 000e AE6B     		ldr	r6, [r5, #56]	@ _43, f_41->sizep
 5160              	@ /home/stero141/Projects/MicrocontrollersProjects/opentx-release-2.3.15/radio/src/thirdparty/Lua/s
 504:/home/stero141/Projects/MicrocontrollersProjects/opentx-release-2.3.15/radio/src/thirdparty/Lua/src/lparser.c ****     int oldsize = f->sizep;
 5161              		.loc 1 504 6 view .LVU1291
 5162 0010 D9F82430 		ldr	r3, [r9, #36]	@ fs_40->np, fs_40->np
 5163              	.LVL461:
 504:/home/stero141/Projects/MicrocontrollersProjects/opentx-release-2.3.15/radio/src/thirdparty/Lua/src/lparser.c ****     int oldsize = f->sizep;
 5164              		.loc 1 504 6 view .LVU1292
 5165 0014 B342     		cmp	r3, r6	@ fs_40->np, _43
 5166              	.LBE334:
 5167              	.LBE338:
 5168              	@ /home/stero141/Projects/MicrocontrollersProjects/opentx-release-2.3.15/radio/src/thirdparty/Lua/s
 789:/home/stero141/Projects/MicrocontrollersProjects/opentx-release-2.3.15/radio/src/thirdparty/Lua/src/lparser.c ****   /* body ->  `(' parlist `)' block END */
 5169              		.loc 1 789 69 view .LVU1293
 5170 0016 93B0     		sub	sp, sp, #76	@,,
 5171              	.LCFI56:
 5172              		.cfi_def_cfa_offset 112
 5173              	@ /home/stero141/Projects/MicrocontrollersProjects/opentx-release-2.3.15/radio/src/thirdparty/Lua/s
 789:/home/stero141/Projects/MicrocontrollersProjects/opentx-release-2.3.15/radio/src/thirdparty/Lua/src/lparser.c ****   /* body ->  `(' parlist `)' block END */
 5174              		.loc 1 789 69 view .LVU1294
 5175 0018 0446     		mov	r4, r0	@ ls, tmp250
 5176 001a 0F46     		mov	r7, r1	@ e, tmp251
 5177 001c 9246     		mov	r10, r2	@ ismethod, tmp252
 5178              	.LBB339:
 5179              	.LBB335:
 5180              	@ /home/stero141/Projects/MicrocontrollersProjects/opentx-release-2.3.15/radio/src/thirdparty/Lua/s
 504:/home/stero141/Projects/MicrocontrollersProjects/opentx-release-2.3.15/radio/src/thirdparty/Lua/src/lparser.c ****     int oldsize = f->sizep;
 5181              		.loc 1 504 6 view .LVU1295
 5182 001e 80F2BA80 		bge	.L256		@,
 5183              	.LVL462:
 5184              	.L261:
 509:/home/stero141/Projects/MicrocontrollersProjects/opentx-release-2.3.15/radio/src/thirdparty/Lua/src/lparser.c ****   luaC_objbarrier(L, f, clp);
 5185              		.loc 1 509 3 is_stmt 1 view .LVU1296
 5186              	@ /home/stero141/Projects/MicrocontrollersProjects/opentx-release-2.3.15/radio/src/thirdparty/Lua/s
 509:/home/stero141/Projects/MicrocontrollersProjects/opentx-release-2.3.15/radio/src/thirdparty/Lua/src/lparser.c ****   luaC_objbarrier(L, f, clp);
 5187              		.loc 1 509 26 is_stmt 0 view .LVU1297
 5188 0022 5846     		mov	r0, fp	@, L
 5189 0024 FFF7FEFF 		bl	luaF_newproto		@
 5190              	.LVL463:
 5191              	@ /home/stero141/Projects/MicrocontrollersProjects/opentx-release-2.3.15/radio/src/thirdparty/Lua/s
 509:/home/stero141/Projects/MicrocontrollersProjects/opentx-release-2.3.15/radio/src/thirdparty/Lua/src/lparser.c ****   luaC_objbarrier(L, f, clp);
 5192              		.loc 1 509 10 discriminator 1 view .LVU1298
 5193 0028 D9F82430 		ldr	r3, [r9, #36]	@ _56, fs_40->np
 5194              	@ /home/stero141/Projects/MicrocontrollersProjects/opentx-release-2.3.15/radio/src/thirdparty/Lua/s
 509:/home/stero141/Projects/MicrocontrollersProjects/opentx-release-2.3.15/radio/src/thirdparty/Lua/src/lparser.c ****   luaC_objbarrier(L, f, clp);
 5195              		.loc 1 509 4 discriminator 1 view .LVU1299
 5196 002c 2A69     		ldr	r2, [r5, #16]	@ _55, f_41->p
 5197              	@ /home/stero141/Projects/MicrocontrollersProjects/opentx-release-2.3.15/radio/src/thirdparty/Lua/s
 509:/home/stero141/Projects/MicrocontrollersProjects/opentx-release-2.3.15/radio/src/thirdparty/Lua/src/lparser.c ****   luaC_objbarrier(L, f, clp);
 5198              		.loc 1 509 14 discriminator 1 view .LVU1300
 5199 002e 591C     		adds	r1, r3, #1	@ _57, _56,
 5200 0030 C9F82410 		str	r1, [r9, #36]	@ _57, fs_40->np
 5201              	@ /home/stero141/Projects/MicrocontrollersProjects/opentx-release-2.3.15/radio/src/thirdparty/Lua/s
 509:/home/stero141/Projects/MicrocontrollersProjects/opentx-release-2.3.15/radio/src/thirdparty/Lua/src/lparser.c ****   luaC_objbarrier(L, f, clp);
 5202              		.loc 1 509 18 discriminator 1 view .LVU1301
 5203 0034 42F82300 		str	r0, [r2, r3, lsl #2]	@ clp, *_60
ARM GAS  /tmp/cc3ioNp3.s 			page 143


 5204              	@ /home/stero141/Projects/MicrocontrollersProjects/opentx-release-2.3.15/radio/src/thirdparty/Lua/s
 510:/home/stero141/Projects/MicrocontrollersProjects/opentx-release-2.3.15/radio/src/thirdparty/Lua/src/lparser.c ****   return clp;
 5205              		.loc 1 510 3 view .LVU1302
 5206 0038 4379     		ldrb	r3, [r0, #5]	@ zero_extendqisi2	@ MEM[(union GCObject *)clp_54].gch.marked, MEM[(union GCObje
 5207 003a 9A07     		lsls	r2, r3, #30	@, MEM[(union GCObject *)clp_54].gch.marked,
 5208              	@ /home/stero141/Projects/MicrocontrollersProjects/opentx-release-2.3.15/radio/src/thirdparty/Lua/s
 509:/home/stero141/Projects/MicrocontrollersProjects/opentx-release-2.3.15/radio/src/thirdparty/Lua/src/lparser.c ****   luaC_objbarrier(L, f, clp);
 5209              		.loc 1 509 26 view .LVU1303
 5210 003c 0646     		mov	r6, r0	@ clp, tmp254
 5211              	.LVL464:
 510:/home/stero141/Projects/MicrocontrollersProjects/opentx-release-2.3.15/radio/src/thirdparty/Lua/src/lparser.c ****   return clp;
 5212              		.loc 1 510 3 is_stmt 1 view .LVU1304
 5213 003e 40F0C080 		bne	.L257		@,
 5214              	.LVL465:
 5215              	.L258:
 510:/home/stero141/Projects/MicrocontrollersProjects/opentx-release-2.3.15/radio/src/thirdparty/Lua/src/lparser.c ****   return clp;
 5216              		.loc 1 510 29 discriminator 5 view .LVU1305
 511:/home/stero141/Projects/MicrocontrollersProjects/opentx-release-2.3.15/radio/src/thirdparty/Lua/src/lparser.c **** }
 5217              		.loc 1 511 3 view .LVU1306
 511:/home/stero141/Projects/MicrocontrollersProjects/opentx-release-2.3.15/radio/src/thirdparty/Lua/src/lparser.c **** }
 5218              		.loc 1 511 3 is_stmt 0 view .LVU1307
 5219              	.LBE335:
 5220              	.LBE339:
 5221              	.LBB340:
 5222              	.LBB341:
 5223              	@ /home/stero141/Projects/MicrocontrollersProjects/opentx-release-2.3.15/radio/src/thirdparty/Lua/s
 531:/home/stero141/Projects/MicrocontrollersProjects/opentx-release-2.3.15/radio/src/thirdparty/Lua/src/lparser.c ****   fs->ls = ls;
 5224              		.loc 1 531 12 view .LVU1308
 5225 0042 D4E90C39 		ldrd	r3, r9, [r4, #48]	@ ls_6(D)->fs, L, ls,
 5226              	@ /home/stero141/Projects/MicrocontrollersProjects/opentx-release-2.3.15/radio/src/thirdparty/Lua/s
 532:/home/stero141/Projects/MicrocontrollersProjects/opentx-release-2.3.15/radio/src/thirdparty/Lua/src/lparser.c ****   ls->fs = fs;
 5227              		.loc 1 532 10 view .LVU1309
 5228 0046 CDE90734 		strd	r3, r4, [sp, #28]	@ ls_6(D)->fs, ls,,
 5229              	@ /home/stero141/Projects/MicrocontrollersProjects/opentx-release-2.3.15/radio/src/thirdparty/Lua/s
 533:/home/stero141/Projects/MicrocontrollersProjects/opentx-release-2.3.15/radio/src/thirdparty/Lua/src/lparser.c ****   fs->pc = 0;
 5230              		.loc 1 533 10 view .LVU1310
 5231 004a 05AB     		add	r3, sp, #20	@ tmp195,,
 5232              	@ /home/stero141/Projects/MicrocontrollersProjects/opentx-release-2.3.15/radio/src/thirdparty/Lua/s
 534:/home/stero141/Projects/MicrocontrollersProjects/opentx-release-2.3.15/radio/src/thirdparty/Lua/src/lparser.c ****   fs->lasttarget = 0;
 5233              		.loc 1 534 10 view .LVU1311
 5234 004c 0025     		movs	r5, #0	@ tmp196,
 5235              	.LBE341:
 5236              	.LBE340:
 5237              	@ /home/stero141/Projects/MicrocontrollersProjects/opentx-release-2.3.15/radio/src/thirdparty/Lua/s
 794:/home/stero141/Projects/MicrocontrollersProjects/opentx-release-2.3.15/radio/src/thirdparty/Lua/src/lparser.c ****   open_func(ls, &new_fs, &bl);
 5238              		.loc 1 794 25 view .LVU1312
 5239 004e C6F84080 		str	r8, [r6, #64]	@ line, clp_54->linedefined
 5240              	.LBB355:
 5241              	.LBB351:
 5242              	@ /home/stero141/Projects/MicrocontrollersProjects/opentx-release-2.3.15/radio/src/thirdparty/Lua/s
 533:/home/stero141/Projects/MicrocontrollersProjects/opentx-release-2.3.15/radio/src/thirdparty/Lua/src/lparser.c ****   fs->pc = 0;
 5243              		.loc 1 533 10 view .LVU1313
 5244 0052 2363     		str	r3, [r4, #48]	@ tmp195, ls_6(D)->fs
 5245              	@ /home/stero141/Projects/MicrocontrollersProjects/opentx-release-2.3.15/radio/src/thirdparty/Lua/s
 536:/home/stero141/Projects/MicrocontrollersProjects/opentx-release-2.3.15/radio/src/thirdparty/Lua/src/lparser.c ****   fs->freereg = 0;
 5246              		.loc 1 536 11 view .LVU1314
 5247 0054 4FF0FF33 		mov	r3, #-1	@ tmp198,
ARM GAS  /tmp/cc3ioNp3.s 			page 144


 5248              	@ /home/stero141/Projects/MicrocontrollersProjects/opentx-release-2.3.15/radio/src/thirdparty/Lua/s
 538:/home/stero141/Projects/MicrocontrollersProjects/opentx-release-2.3.15/radio/src/thirdparty/Lua/src/lparser.c ****   fs->np = 0;
 5249              		.loc 1 538 10 view .LVU1315
 5250 0058 CDE90C35 		strd	r3, r5, [sp, #48]	@ tmp198, tmp196,,
 5251              	@ /home/stero141/Projects/MicrocontrollersProjects/opentx-release-2.3.15/radio/src/thirdparty/Lua/s
 543:/home/stero141/Projects/MicrocontrollersProjects/opentx-release-2.3.15/radio/src/thirdparty/Lua/src/lparser.c ****   fs->bl = NULL;
 5252              		.loc 1 543 35 view .LVU1316
 5253 005c 236C     		ldr	r3, [r4, #64]	@ ls_6(D)->dyd, ls_6(D)->dyd
 5254              	@ /home/stero141/Projects/MicrocontrollersProjects/opentx-release-2.3.15/radio/src/thirdparty/Lua/s
 541:/home/stero141/Projects/MicrocontrollersProjects/opentx-release-2.3.15/radio/src/thirdparty/Lua/src/lparser.c ****   fs->nactvar = 0;
 5255              		.loc 1 541 16 view .LVU1317
 5256 005e 1095     		str	r5, [sp, #64]	@ tmp196, MEM <unsigned int> [(void *)&new_fs + 44B]
 5257              	@ /home/stero141/Projects/MicrocontrollersProjects/opentx-release-2.3.15/radio/src/thirdparty/Lua/s
 537:/home/stero141/Projects/MicrocontrollersProjects/opentx-release-2.3.15/radio/src/thirdparty/Lua/src/lparser.c ****   fs->nk = 0;
 5258              		.loc 1 537 15 view .LVU1318
 5259 0060 8DF84450 		strb	r5, [sp, #68]	@ tmp196, new_fs.freereg
 5260              	@ /home/stero141/Projects/MicrocontrollersProjects/opentx-release-2.3.15/radio/src/thirdparty/Lua/s
 543:/home/stero141/Projects/MicrocontrollersProjects/opentx-release-2.3.15/radio/src/thirdparty/Lua/src/lparser.c ****   fs->bl = NULL;
 5261              		.loc 1 543 18 view .LVU1319
 5262 0064 5B68     		ldr	r3, [r3, #4]	@ _30->actvar.n, _30->actvar.n
 5263 0066 0F93     		str	r3, [sp, #60]	@ _30->actvar.n, new_fs.firstlocal
 5264              	@ /home/stero141/Projects/MicrocontrollersProjects/opentx-release-2.3.15/radio/src/thirdparty/Lua/s
 546:/home/stero141/Projects/MicrocontrollersProjects/opentx-release-2.3.15/radio/src/thirdparty/Lua/src/lparser.c ****   f->maxstacksize = 2;  /* registers 0/1 are always valid */
 5265              		.loc 1 546 13 view .LVU1320
 5266 0068 636C     		ldr	r3, [r4, #68]	@ ls_6(D)->source, ls_6(D)->source
 5267              	@ /home/stero141/Projects/MicrocontrollersProjects/opentx-release-2.3.15/radio/src/thirdparty/Lua/s
 539:/home/stero141/Projects/MicrocontrollersProjects/opentx-release-2.3.15/radio/src/thirdparty/Lua/src/lparser.c ****   fs->nups = 0;
 5268              		.loc 1 539 10 view .LVU1321
 5269 006a 0E95     		str	r5, [sp, #56]	@ tmp196, new_fs.np
 5270              	@ /home/stero141/Projects/MicrocontrollersProjects/opentx-release-2.3.15/radio/src/thirdparty/Lua/s
 546:/home/stero141/Projects/MicrocontrollersProjects/opentx-release-2.3.15/radio/src/thirdparty/Lua/src/lparser.c ****   f->maxstacksize = 2;  /* registers 0/1 are always valid */
 5271              		.loc 1 546 13 view .LVU1322
 5272 006c 7362     		str	r3, [r6, #36]	@ ls_6(D)->source, clp_54->source
 5273              	@ /home/stero141/Projects/MicrocontrollersProjects/opentx-release-2.3.15/radio/src/thirdparty/Lua/s
 547:/home/stero141/Projects/MicrocontrollersProjects/opentx-release-2.3.15/radio/src/thirdparty/Lua/src/lparser.c ****   fs->h = luaH_new(L);
 5274              		.loc 1 547 19 view .LVU1323
 5275 006e 0223     		movs	r3, #2	@ tmp208,
 5276 0070 86F84E30 		strb	r3, [r6, #78]	@ tmp208, clp_54->maxstacksize
 5277              	@ /home/stero141/Projects/MicrocontrollersProjects/opentx-release-2.3.15/radio/src/thirdparty/Lua/s
 548:/home/stero141/Projects/MicrocontrollersProjects/opentx-release-2.3.15/radio/src/thirdparty/Lua/src/lparser.c ****   /* anchor table of constants (to avoid being collected) */
 5278              		.loc 1 548 11 view .LVU1324
 5279 0074 4846     		mov	r0, r9	@, L
 5280              	@ /home/stero141/Projects/MicrocontrollersProjects/opentx-release-2.3.15/radio/src/thirdp